
hdmi.elf:     file format elf32-littlenios2
hdmi.elf
architecture: nios2:r1, flags 0x00000112:
EXEC_P, HAS_SYMS, D_PAGED
start address 0x00080244

Program Header:
    LOAD off    0x00001000 vaddr 0x00080000 paddr 0x00080000 align 2**12
         filesz 0x00000020 memsz 0x00000020 flags r-x
    LOAD off    0x00001020 vaddr 0x00080020 paddr 0x00080020 align 2**12
         filesz 0x0001c790 memsz 0x0001c790 flags r-x
    LOAD off    0x0001d7b0 vaddr 0x0009c7b0 paddr 0x0009edac align 2**12
         filesz 0x000025fc memsz 0x000025fc flags rw-
    LOAD off    0x000203a8 vaddr 0x000a13a8 paddr 0x000a13a8 align 2**12
         filesz 0x00000000 memsz 0x0000052c flags rw-

Sections:
Idx Name          Size      VMA       LMA       File off  Algn
  0 .entry        00000020  00080000  00080000  00001000  2**5
                  CONTENTS, ALLOC, LOAD, READONLY, CODE
  1 .exceptions   00000224  00080020  00080020  00001020  2**2
                  CONTENTS, ALLOC, LOAD, READONLY, CODE
  2 .text         0001b5dc  00080244  00080244  00001244  2**2
                  CONTENTS, ALLOC, LOAD, READONLY, CODE
  3 .rodata       00000f90  0009b820  0009b820  0001c820  2**2
                  CONTENTS, ALLOC, LOAD, READONLY, DATA
  4 .rwdata       000025fc  0009c7b0  0009edac  0001d7b0  2**2
                  CONTENTS, ALLOC, LOAD, DATA, SMALL_DATA
  5 .bss          0000052c  000a13a8  000a13a8  000203a8  2**2
                  ALLOC, SMALL_DATA
  6 .onchip_mem   00000000  000a18d4  000a18d4  0001fdac  2**0
                  CONTENTS
  7 .comment      00000023  00000000  00000000  0001fdac  2**0
                  CONTENTS, READONLY
  8 .debug_aranges 000010f8  00000000  00000000  0001fdd0  2**3
                  CONTENTS, READONLY, DEBUGGING
  9 .debug_info   0002dcb5  00000000  00000000  00020ec8  2**0
                  CONTENTS, READONLY, DEBUGGING
 10 .debug_abbrev 0000b1b8  00000000  00000000  0004eb7d  2**0
                  CONTENTS, READONLY, DEBUGGING
 11 .debug_line   0000f2cf  00000000  00000000  00059d35  2**0
                  CONTENTS, READONLY, DEBUGGING
 12 .debug_frame  0000384c  00000000  00000000  00069004  2**2
                  CONTENTS, READONLY, DEBUGGING
 13 .debug_str    000057fd  00000000  00000000  0006c850  2**0
                  CONTENTS, READONLY, DEBUGGING
 14 .debug_loc    0001cb01  00000000  00000000  0007204d  2**0
                  CONTENTS, READONLY, DEBUGGING
 15 .debug_alt_sim_info 00000050  00000000  00000000  0008eb50  2**2
                  CONTENTS, READONLY, DEBUGGING
 16 .debug_ranges 00001b10  00000000  00000000  0008eba0  2**3
                  CONTENTS, READONLY, DEBUGGING
 17 .thread_model 00000003  00000000  00000000  00095182  2**0
                  CONTENTS, READONLY
 18 .cpu          00000003  00000000  00000000  00095185  2**0
                  CONTENTS, READONLY
 19 .qsys         00000001  00000000  00000000  00095188  2**0
                  CONTENTS, READONLY
 20 .simulation_enabled 00000001  00000000  00000000  00095189  2**0
                  CONTENTS, READONLY
 21 .sysid_hash   00000004  00000000  00000000  0009518a  2**0
                  CONTENTS, READONLY
 22 .sysid_base   00000004  00000000  00000000  0009518e  2**0
                  CONTENTS, READONLY
 23 .sysid_time   00000004  00000000  00000000  00095192  2**0
                  CONTENTS, READONLY
 24 .stderr_dev   00000009  00000000  00000000  00095196  2**0
                  CONTENTS, READONLY
 25 .stdin_dev    00000009  00000000  00000000  0009519f  2**0
                  CONTENTS, READONLY
 26 .stdout_dev   00000009  00000000  00000000  000951a8  2**0
                  CONTENTS, READONLY
 27 .sopc_system_name 00000004  00000000  00000000  000951b1  2**0
                  CONTENTS, READONLY
 28 .quartus_project_dir 00000023  00000000  00000000  000951b5  2**0
                  CONTENTS, READONLY
 29 .jdi          00003985  00000000  00000000  000951d8  2**0
                  CONTENTS, READONLY
 30 .sopcinfo     00065e03  00000000  00000000  00098b5d  2**0
                  CONTENTS, READONLY
SYMBOL TABLE:
00080000 l    d  .entry	00000000 .entry
00080020 l    d  .exceptions	00000000 .exceptions
00080244 l    d  .text	00000000 .text
0009b820 l    d  .rodata	00000000 .rodata
0009c7b0 l    d  .rwdata	00000000 .rwdata
000a13a8 l    d  .bss	00000000 .bss
000a18d4 l    d  .onchip_mem	00000000 .onchip_mem
00000000 l    d  .comment	00000000 .comment
00000000 l    d  .debug_aranges	00000000 .debug_aranges
00000000 l    d  .debug_info	00000000 .debug_info
00000000 l    d  .debug_abbrev	00000000 .debug_abbrev
00000000 l    d  .debug_line	00000000 .debug_line
00000000 l    d  .debug_frame	00000000 .debug_frame
00000000 l    d  .debug_str	00000000 .debug_str
00000000 l    d  .debug_loc	00000000 .debug_loc
00000000 l    d  .debug_alt_sim_info	00000000 .debug_alt_sim_info
00000000 l    d  .debug_ranges	00000000 .debug_ranges
00000000 l    df *ABS*	00000000 ../test7_bsp//obj/HAL/src/crt0.o
0008027c l       .text	00000000 alt_after_alt_main
00000000 l    df *ABS*	00000000 alt_irq_handler.c
00000000 l    df *ABS*	00000000 alt_instruction_exception_entry.c
00000000 l    df *ABS*	00000000 EDID.c
00080280 l     F .text	0000007c EDIDCheckSum
00000000 l    df *ABS*	00000000 HDMI_TX.c
000a13ac l     O .bss	00000001 PreHPD.4474
000a13ad l     O .bss	00000001 PreHPDChange.4473
00000000 l    df *ABS*	00000000 dss_sha.c
00000000 l    df *ABS*	00000000 it6613_drv.c
0009ed5c l     O .rwdata	00000003 bCSCOffset_16_235
0009ed5f l     O .rwdata	00000003 bCSCOffset_0_255
0009c7c0 l     O .rwdata	00000012 bCSCMtx_RGB2YUV_ITU601_16_235
0009c7d2 l     O .rwdata	00000012 bCSCMtx_RGB2YUV_ITU601_0_255
0009c7e4 l     O .rwdata	00000012 bCSCMtx_RGB2YUV_ITU709_16_235
0009c7f6 l     O .rwdata	00000012 bCSCMtx_RGB2YUV_ITU709_0_255
00081488 l     F .text	000000fc InitIT6613_HDCPROM
00086494 l     F .text	00000034 DISABLE_NULL_PKT
000864c8 l     F .text	00000034 DISABLE_ACP_PKT
000864fc l     F .text	00000034 DISABLE_ISRC1_PKT
00086530 l     F .text	00000034 DISABLE_ISRC2_PKT
00086564 l     F .text	00000034 DISABLE_AVI_INFOFRM_PKT
00086598 l     F .text	00000034 DISABLE_AUD_INFOFRM_PKT
000865cc l     F .text	00000034 DISABLE_SPD_INFOFRM_PKT
00086600 l     F .text	00000034 DISABLE_MPG_INFOFRM_PKT
00082730 l     F .text	0000014c SetInputMode
0008287c l     F .text	00000538 SetCSCScale
00082db4 l     F .text	000000e8 SetupAFE
00082e9c l     F .text	00000094 FireAFE
00083688 l     F .text	00000438 SetNCTS
00082f30 l     F .text	0000032c SetAudioFormat
00083c74 l     F .text	000002e0 ReadEDID
00084488 l     F .text	00000354 HDCP_Authenticate
00083fb8 l     F .text	00000070 HDCP_ResetAuth
00083ac0 l     F .text	00000040 ClearDDCFIFO
00083b40 l     F .text	00000134 AbortDDC
000862b0 l     F .text	00000044 HDCP_ResumeAuthentication
0008355c l     F .text	0000012c SetupAudioChannel
00086634 l     F .text	00000208 SetAVIInfoFrame
0008683c l     F .text	00000118 SetAudioInfoFrame
0009c850 l     O .rwdata	00000520 DeGen_Table
0009cd70 l     O .rwdata	00000280 SyncEmbTable
0008325c l     F .text	00000300 AutoAdjustAudio
000a13b6 l     O .bss	00000001 bEnableAudioChannel.4617
00083b00 l     F .text	00000040 GenerateDDCSCLK
00083f54 l     F .text	00000064 HDCP_ClearAuthInterrupt
00084028 l     F .text	0000003c HDCP_EnableEncryption
00084064 l     F .text	00000040 HDCP_Auth_Fire
000840a4 l     F .text	0000003c HDCP_StartAnCipher
000840e0 l     F .text	00000034 HDCP_StopAnCipher
00084114 l     F .text	0000005c HDCP_GenerateAn
00084170 l     F .text	00000124 HDCP_GetBCaps
00084294 l     F .text	00000114 HDCP_GetBKSV
000843a8 l     F .text	0000006c countbit
00084414 l     F .text	00000074 HDCP_Reset
00085e50 l     F .text	00000460 HDCP_Authenticate_Repeater
000847dc l     F .text	0000007c HDCP_VerifyIntegration
000a1428 l     O .bss	00000020 KSVList
000a1448 l     O .bss	00000014 Vr
000a13ae l     O .bss	00000008 M0
00084858 l     F .text	00000054 HDCP_CancelRepeaterAuthenticate
000848ac l     F .text	00000040 HDCP_ResumeRepeaterAuthenticate
000848ec l     F .text	000001ac HDCP_GetKSVList
00084a98 l     F .text	0000028c HDCP_GetVr
00084d24 l     F .text	0000017c HDCP_GetM0
000a145c l     O .bss	00000040 SHABuff
000a149c l     O .bss	00000014 V
000a14b0 l     O .bss	00000140 w
000a15f0 l     O .bss	00000014 sha
00084ea0 l     F .text	0000089c SHATransform
00085b50 l     F .text	00000300 HDCP_CheckSHA
000862f4 l     F .text	00000034 ENABLE_NULL_PKT
00086328 l     F .text	00000034 ENABLE_ACP_PKT
0008635c l     F .text	00000034 ENABLE_ISRC1_PKT
00086390 l     F .text	00000034 ENABLE_ISRC2_PKT
000863c4 l     F .text	00000034 ENABLE_AVI_INFOFRM_PKT
000863f8 l     F .text	00000034 ENABLE_AUD_INFOFRM_PKT
0008642c l     F .text	00000034 ENABLE_SPD_INFOFRM_PKT
00086460 l     F .text	00000034 ENABLE_MPG_INFOFRM_PKT
00086954 l     F .text	000000e4 SetSPDInfoFrame
00086a38 l     F .text	00000154 SetMPEGInfoFrame
00000000 l    df *ABS*	00000000 it6613_sys.c
000a1604 l     O .bss	00000080 EDID_Buf
00000000 l    df *ABS*	00000000 mcu.c
000a13dc l     O .bss	00000004 bEnableErrorF
000a13e0 l     O .bss	00000004 BootTime.4239
00000000 l    df *ABS*	00000000 main.c
00000000 l    df *ABS*	00000000 I2C.c
00000000 l    df *ABS*	00000000 debug.c
00000000 l    df *ABS*	00000000 lib2-divmod.c
00000000 l    df *ABS*	00000000 impure.c
0009d2b0 l     O .rwdata	00000424 impure_data
00000000 l    df *ABS*	00000000 memcpy.c
00000000 l    df *ABS*	00000000 printf.c
00000000 l    df *ABS*	00000000 putchar.c
00000000 l    df *ABS*	00000000 puts.c
00000000 l    df *ABS*	00000000 sprintf.c
00000000 l    df *ABS*	00000000 strlen.c
00000000 l    df *ABS*	00000000 vfprintf.c
0009c4c2 l     O .rodata	00000010 zeroes.4389
0009c4d2 l     O .rodata	00000010 blanks.4388
00000000 l    df *ABS*	00000000 vfprintf.c
0009c4e2 l     O .rodata	00000010 zeroes.4404
0008d638 l     F .text	000000bc __sbprintf
0009c4f2 l     O .rodata	00000010 blanks.4403
00000000 l    df *ABS*	00000000 vfprintf_1.c
00000000 l    df *ABS*	00000000 vsnprintf.c
00000000 l    df *ABS*	00000000 wsetup.c
00000000 l    df *ABS*	00000000 dtoa.c
0008d970 l     F .text	00000200 quorem
00000000 l    df *ABS*	00000000 fflush.c
00000000 l    df *ABS*	00000000 findfp.c
0008f4a0 l     F .text	00000008 __fp_unlock
0008f4b4 l     F .text	0000019c __sinit.part.1
0008f650 l     F .text	00000008 __fp_lock
00000000 l    df *ABS*	00000000 mallocr.c
00000000 l    df *ABS*	00000000 fvwrite.c
00000000 l    df *ABS*	00000000 fwalk.c
00000000 l    df *ABS*	00000000 locale.c
0009d6f4 l     O .rwdata	00000020 lc_ctype_charset
0009d6d4 l     O .rwdata	00000020 lc_message_charset
0009d714 l     O .rwdata	00000038 lconv
00000000 l    df *ABS*	00000000 makebuf.c
00000000 l    df *ABS*	00000000 mallocr.c
00000000 l    df *ABS*	00000000 memchr.c
00000000 l    df *ABS*	00000000 memmove.c
00000000 l    df *ABS*	00000000 memset.c
00000000 l    df *ABS*	00000000 mprec.c
0009c520 l     O .rodata	0000000c p05.2768
00000000 l    df *ABS*	00000000 putc.c
00000000 l    df *ABS*	00000000 mallocr.c
00000000 l    df *ABS*	00000000 s_fpclassify.c
00000000 l    df *ABS*	00000000 sbrkr.c
00000000 l    df *ABS*	00000000 stdio.c
00000000 l    df *ABS*	00000000 strcmp.c
00000000 l    df *ABS*	00000000 vfprintf.c
0009c654 l     O .rodata	00000010 blanks.4332
0009c644 l     O .rodata	00000010 zeroes.4333
00000000 l    df *ABS*	00000000 vfprintf.c
00093e78 l     F .text	000000fc __sprint_r.part.0
0009c674 l     O .rodata	00000010 blanks.4348
0009c664 l     O .rodata	00000010 zeroes.4349
00095404 l     F .text	000000bc __sbprintf
00000000 l    df *ABS*	00000000 wbuf.c
00000000 l    df *ABS*	00000000 writer.c
00000000 l    df *ABS*	00000000 closer.c
00000000 l    df *ABS*	00000000 mallocr.c
00000000 l    df *ABS*	00000000 fclose.c
00000000 l    df *ABS*	00000000 fputwc.c
00000000 l    df *ABS*	00000000 fstatr.c
00000000 l    df *ABS*	00000000 int_errno.c
00000000 l    df *ABS*	00000000 isattyr.c
00000000 l    df *ABS*	00000000 lseekr.c
00000000 l    df *ABS*	00000000 readr.c
00000000 l    df *ABS*	00000000 wcrtomb.c
00000000 l    df *ABS*	00000000 wctomb_r.c
00000000 l    df *ABS*	00000000 libgcc2.c
00000000 l    df *ABS*	00000000 libgcc2.c
00000000 l    df *ABS*	00000000 adddf3.c
00000000 l    df *ABS*	00000000 divdf3.c
00000000 l    df *ABS*	00000000 eqdf2.c
00000000 l    df *ABS*	00000000 gedf2.c
00000000 l    df *ABS*	00000000 ledf2.c
00000000 l    df *ABS*	00000000 muldf3.c
00000000 l    df *ABS*	00000000 subdf3.c
00000000 l    df *ABS*	00000000 fixdfsi.c
00000000 l    df *ABS*	00000000 floatsidf.c
00000000 l    df *ABS*	00000000 floatunsidf.c
00000000 l    df *ABS*	00000000 libgcc2.c
00000000 l    df *ABS*	00000000 libgcc2.c
00000000 l    df *ABS*	00000000 alt_close.c
00098f0c l     F .text	0000003c alt_get_errno
00000000 l    df *ABS*	00000000 alt_dev.c
00099018 l     F .text	0000002c alt_dev_null_write
00000000 l    df *ABS*	00000000 alt_errno.c
00000000 l    df *ABS*	00000000 alt_fstat.c
00099044 l     F .text	0000003c alt_get_errno
00000000 l    df *ABS*	00000000 alt_isatty.c
00099130 l     F .text	0000003c alt_get_errno
00000000 l    df *ABS*	00000000 alt_load.c
00099210 l     F .text	00000068 alt_load_section
00000000 l    df *ABS*	00000000 alt_lseek.c
000992fc l     F .text	0000003c alt_get_errno
00000000 l    df *ABS*	00000000 alt_main.c
00000000 l    df *ABS*	00000000 alt_malloc_lock.c
00000000 l    df *ABS*	00000000 alt_read.c
000994d0 l     F .text	0000003c alt_get_errno
00000000 l    df *ABS*	00000000 alt_release_fd.c
00000000 l    df *ABS*	00000000 alt_sbrk.c
0009ed9c l     O .rwdata	00000004 heap_end
00000000 l    df *ABS*	00000000 alt_tick.c
00000000 l    df *ABS*	00000000 alt_usleep.c
00000000 l    df *ABS*	00000000 alt_write.c
000998f0 l     F .text	0000003c alt_get_errno
00000000 l    df *ABS*	00000000 alt_sys_init.c
00099a24 l     F .text	00000034 alt_dev_reg
0009dcfc l     O .rwdata	00001060 jtag_uart
00000000 l    df *ABS*	00000000 altera_avalon_jtag_uart_fd.c
00000000 l    df *ABS*	00000000 altera_avalon_jtag_uart_init.c
00099d1c l     F .text	0000020c altera_avalon_jtag_uart_irq
00099f28 l     F .text	000000a0 altera_avalon_jtag_uart_timeout
00000000 l    df *ABS*	00000000 altera_avalon_jtag_uart_ioctl.c
00000000 l    df *ABS*	00000000 altera_avalon_jtag_uart_read.c
00000000 l    df *ABS*	00000000 altera_avalon_jtag_uart_write.c
00000000 l    df *ABS*	00000000 altera_avalon_timer_sc.c
0009a560 l     F .text	00000078 alt_avalon_timer_sc_irq
00000000 l    df *ABS*	00000000 alt_alarm_start.c
00000000 l    df *ABS*	00000000 alt_busy_sleep.c
00000000 l    df *ABS*	00000000 alt_dcache_flush_all.c
00000000 l    df *ABS*	00000000 alt_dev_llist_insert.c
0009a8f8 l     F .text	0000003c alt_get_errno
00000000 l    df *ABS*	00000000 alt_do_ctors.c
00000000 l    df *ABS*	00000000 alt_do_dtors.c
00000000 l    df *ABS*	00000000 alt_icache_flush_all.c
00000000 l    df *ABS*	00000000 alt_iic.c
00000000 l    df *ABS*	00000000 alt_iic_isr_register.c
00000000 l    df *ABS*	00000000 alt_io_redirect.c
0009ad6c l     F .text	000000c4 alt_open_fd
00000000 l    df *ABS*	00000000 alt_irq_vars.c
00000000 l    df *ABS*	00000000 alt_open.c
0009aeac l     F .text	0000003c alt_get_errno
0009aee8 l     F .text	000000c4 alt_file_locked
00000000 l    df *ABS*	00000000 altera_nios2_gen2_irq.c
00000000 l    df *ABS*	00000000 alt_find_dev.c
00000000 l    df *ABS*	00000000 alt_find_file.c
00000000 l    df *ABS*	00000000 alt_get_fd.c
00000000 l    df *ABS*	00000000 alt_icache_flush.c
00000000 l    df *ABS*	00000000 atexit.c
00000000 l    df *ABS*	00000000 exit.c
00000000 l    df *ABS*	00000000 memcmp.c
00000000 l    df *ABS*	00000000 __atexit.c
00000000 l    df *ABS*	00000000 __call_atexit.c
00000000 l    df *ABS*	00000000 alt_exit.c
000a1424 g     O .bss	00000004 alt_instruction_exception_handler
00089004 g     F .text	00000018 putchar
00091f48 g     F .text	00000074 _mprec_log10
000884fc g     F .text	0000010c I2C_Read
00092034 g     F .text	0000008c __any_on
00095af8 g     F .text	00000054 _isatty_r
0009c52c g     O .rodata	00000028 __mprec_tinytens
0009940c g     F .text	0000007c alt_main
0008901c g     F .text	000000c0 _puts_r
000a17d4 g     O .bss	00000100 alt_irq
00095b4c g     F .text	00000060 _lseek_r
00080f70 g     F .text	0000002c HDMITX_DisableVideoOutput
0009edac g       *ABS*	00000000 __flash_rwdata_start
00097a38 g     F .text	00000088 .hidden __eqdf2
00081e44 g     F .text	00000048 DisableIT6613
000a16bc g     O .bss	0000000d AudioInfo
000a13a8 g     O .bss	00000004 TX_HDP
000a18d4 g       *ABS*	00000000 __alt_heap_start
000878bc g     F .text	0000007c HDMITX_Reset
00087ea0 g     F .text	00000130 FindVIC
00088fc0 g     F .text	0000003c printf
00095c0c g     F .text	0000009c _wcrtomb_r
0008117c g     F .text	0000007c HDMITX_IsSinkSupportColorDepth30
0009292c g     F .text	0000005c __sseek
0008f7f0 g     F .text	00000010 __sinit
000954c0 g     F .text	00000140 __swbuf_r
000902b8 g     F .text	0000007c _setlocale_r
0008f658 g     F .text	00000068 __sfmoreglue
00087718 g     F .text	00000020 OS_TicksPerSecond
000994ac g     F .text	00000024 __malloc_unlock
00080f9c g     F .text	0000002c HDMITX_EnableVideoOutput
00081430 g     F .text	00000058 HDMITX_InitInstance
00087cb8 g     F .text	00000058 I2C_Write_Byte
00090e40 g     F .text	0000015c memmove
0008f7d8 g     F .text	00000018 _cleanup
000824b4 g     F .text	0000027c ProgramSyncEmbeddedVideoMode
000910c4 g     F .text	000000a8 _Balloc
00081f28 g     F .text	0000005c EnableAVIInfoFrame
00097ac0 g     F .text	000000dc .hidden __gtdf2
0009b100 g     F .text	00000024 altera_nios2_gen2_irq_init
00081100 g     F .text	0000007c HDMITX_IsSinkSupportColorDepth36
0008885c g     F .text	00000130 i2c_write
00080000 g     F .entry	0000001c __reset
00080020 g       *ABS*	00000000 __flash_exceptions_start
00095a9c g     F .text	0000005c _fstat_r
000a1408 g     O .bss	00000004 errno
000928a8 g     F .text	00000008 __seofread
00092c3c g     F .text	0000123c ___svfiprintf_internal_r
000a1410 g     O .bss	00000004 alt_argv
00082140 g     F .text	000000e8 Get6613Reg
000a6d5c g       *ABS*	00000000 _gp
000998c0 g     F .text	00000030 usleep
0009db7c g     O .rwdata	00000180 alt_fd_list
00088ffc g     F .text	00000008 _putchar_r
0009b124 g     F .text	00000090 alt_find_dev
00088e48 g     F .text	00000148 memcpy
0008f4a8 g     F .text	0000000c _cleanup_r
000802fc g     F .text	000000fc ParseVESAEDID
00098d24 g     F .text	000000dc .hidden __floatsidf
00087fd0 g     F .text	00000050 SetupTxVIC
0009ae30 g     F .text	0000007c alt_io_redirect
00097b9c g     F .text	000000f4 .hidden __ltdf2
0009b820 g       *ABS*	00000000 __DTOR_END__
00087d10 g     F .text	000000cc I2C_Read_ByteN
000816ac g     F .text	00000038 SetupVideoInputSignal
000890dc g     F .text	00000014 puts
00081f84 g     F .text	0000005c EnableAudioInfoFrame
0009b3f0 g     F .text	0000009c alt_exception_cause_generated_bad_addr
0009c83e g     O .rwdata	00000012 bCSCMtx_YUV2RGB_ITU709_0_255
0009278c g     F .text	00000074 __fpclassifyd
00088020 g     F .text	00000104 VPG_Config
000a13c0 g     O .bss	00000004 VideoPixelClock
00091ea4 g     F .text	000000a4 __ratio
000953e8 g     F .text	0000001c __vfiprintf_internal
0009a120 g     F .text	0000021c altera_avalon_jtag_uart_read
000816e4 g     F .text	00000194 EnableVideoOutput
00088f90 g     F .text	00000030 _printf_r
00088d8c g     F .text	00000064 .hidden __udivsi3
0009916c g     F .text	000000a4 isatty
0009c81a g     O .rwdata	00000012 bCSCMtx_YUV2RGB_ITU601_0_255
0009c57c g     O .rodata	000000c8 __mprec_tens
00090334 g     F .text	0000000c __locale_charset
0008d7e8 g     F .text	00000034 vsnprintf
0009b360 g     F .text	00000090 alt_icache_flush
00088608 g     F .text	00000150 I2C_MultipleRead
000a1404 g     O .bss	00000004 __malloc_top_pad
0009ed74 g     O .rwdata	00000004 __mb_cur_max
00090364 g     F .text	0000000c _localeconv_r
000914d0 g     F .text	0000003c __i2b
0008fc74 g     F .text	000004bc __sfvwrite_r
00092800 g     F .text	00000054 _sbrk_r
00080ce8 g     F .text	00000188 HDMITX_SetAVIInfoFrame
00095bac g     F .text	00000060 _read_r
00080e70 g     F .text	00000080 HDMITX_ChangeVideoTiming
0009ed94 g     O .rwdata	00000004 alt_max_fd
000a13c4 g     O .bss	00000004 aspec
00095790 g     F .text	000000f0 _fclose_r
0008f470 g     F .text	00000030 fflush
000a1400 g     O .bss	00000004 __malloc_max_sbrked_mem
000803f8 g     F .text	00000728 ParseCEAEDID
000968a4 g     F .text	000008ac .hidden __adddf3
00081080 g     F .text	00000080 HDMITX_IsSinkSupportYUV422
00088378 g     F .text	00000058 I2C_Open
00091c4c g     F .text	0000010c __b2d
0009636c g     F .text	00000538 .hidden __umoddi3
00099338 g     F .text	000000d4 lseek
0009ed6c g     O .rwdata	00000004 _global_impure_ptr
00092228 g     F .text	00000564 _realloc_r
000a18d4 g       *ABS*	00000000 __bss_end
0009ac7c g     F .text	000000f0 alt_iic_isr_register
0009cff0 g     O .rwdata	000002c0 gszVicText
000997b8 g     F .text	00000108 alt_tick
00095df4 g     F .text	00000578 .hidden __udivdi3
000959f8 g     F .text	00000024 _fputwc_r
0009c554 g     O .rodata	00000028 __mprec_bigtens
000912b4 g     F .text	00000104 __s2b
0008573c g     F .text	00000414 SHA_Simple
00098e00 g     F .text	000000a8 .hidden __floatunsidf
0009198c g     F .text	00000060 __mcmp
00081000 g     F .text	00000080 HDMITX_IsSinkSupportYUV444
0008f810 g     F .text	00000018 __fp_lock_all
0009ac30 g     F .text	0000004c alt_ic_irq_enabled
00088418 g     F .text	000000e4 I2C_Write
00081b44 g     F .text	00000300 CheckHDMITX
0009971c g     F .text	0000009c alt_alarm_stop
000a1420 g     O .bss	00000004 alt_irq_active
00081e8c g     F .text	00000054 DisableVideoOutput
00080000 g       *ABS*	00000000 __alt_mem_onchip_mem
000800fc g     F .exceptions	000000d4 alt_irq_handler
0009db54 g     O .rwdata	00000028 alt_dev_null
0008717c g     F .text	000001e8 ConfigAVIInfoFrame
000a16cc g     O .bss	000000f8 RxCapability
00087af4 g     F .text	000000b4 HDMITX_ReadI2C_ByteN
00081af0 g     F .text	00000054 EnableHDCP
00088758 g     F .text	0000008c i2c_start
0009a8d8 g     F .text	00000020 alt_dcache_flush_all
000913b8 g     F .text	00000068 __hi0bits
00098ca4 g     F .text	00000080 .hidden __fixdfsi
0009edac g       *ABS*	00000000 __ram_rwdata_end
0009ed8c g     O .rwdata	00000008 alt_dev_list
0009992c g     F .text	000000f8 write
000a13e4 g     O .bss	00000004 gDemoMode
000920c0 g     F .text	000000a0 _putc_r
0009c7b0 g       *ABS*	00000000 __ram_rodata_end
00099080 g     F .text	000000b0 fstat
00087a64 g     F .text	00000044 HDMITX_ReadI2C_Byte
00097b9c g     F .text	000000f4 .hidden __ledf2
00088b28 g     F .text	0000006c myprintf
00091704 g     F .text	00000140 __pow5mult
00093f8c g     F .text	0000145c ___vfiprintf_internal_r
000a13f8 g     O .bss	00000004 __nlocale_changed
00088df0 g     F .text	00000058 .hidden __umodsi3
0008780c g     F .text	000000b0 OS_PRINTF
000a18d4 g       *ABS*	00000000 end
00099c5c g     F .text	000000c0 altera_avalon_jtag_uart_init
000801d0 g     F .exceptions	00000074 alt_instruction_exception_entry
0009b820 g       *ABS*	00000000 __CTOR_LIST__
000cfec0 g       *ABS*	00000000 __alt_stack_pointer
000879b4 g     F .text	000000b0 HDMITX_DumpReg
0009a5d8 g     F .text	0000007c alt_avalon_timer_sc_init
00098ea8 g     F .text	00000064 .hidden __clzsi2
0009a33c g     F .text	00000224 altera_avalon_jtag_uart_write
00081a4c g     F .text	000000a4 GetEDIDData
0008f800 g     F .text	00000004 __sfp_lock_acquire
00090d5c g     F .text	000000e4 memchr
0008b424 g     F .text	000021f8 ___vfprintf_internal_r
000890f0 g     F .text	00000058 _sprintf_r
000a13c8 g     O .bss	00000004 Colorimetry
0008f964 g     F .text	00000310 _free_r
00090340 g     F .text	00000010 __locale_mb_cur_max
0009b66c g     F .text	00000180 __call_exitprocs
000a13f4 g     O .bss	00000004 __mlocale_changed
0009ed78 g     O .rwdata	00000004 __malloc_sbrk_base
00080244 g     F .text	0000003c _start
00080cb8 g     F .text	00000030 HDMITX_HPD
000a1418 g     O .bss	00000004 _alt_tick_rate
000876f8 g     F .text	00000020 OS_GetTicks
00080fc8 g     F .text	00000038 HDMITX_SetColorSpace
00091844 g     F .text	00000148 __lshift
000a141c g     O .bss	00000004 _alt_nticks
0009950c g     F .text	000000fc read
00081878 g     F .text	000001d4 EnableAudioOutput
00099a90 g     F .text	00000068 alt_sys_init
00092a6c g     F .text	000001d0 __ssprint_r
0009b554 g     F .text	00000118 __register_exitproc
0009150c g     F .text	000001f8 __multiply
00099fc8 g     F .text	00000068 altera_avalon_jtag_uart_close
0009c7b0 g       *ABS*	00000000 __ram_rwdata_start
0009b820 g       *ABS*	00000000 __ram_rodata_start
000a1684 g     O .bss	00000028 __malloc_current_mallinfo
00091d58 g     F .text	0000014c __d2b
00080ef0 g     F .text	00000080 HDMITX_ChangeVideoTimingAndColor
000a13cc g     O .bss	00000001 pixelrep
00099af8 g     F .text	00000060 altera_avalon_jtag_uart_read_fd
0009b2bc g     F .text	000000a4 alt_get_fd
0009a780 g     F .text	00000158 alt_busy_sleep
00095678 g     F .text	00000054 _close_r
0009b4d8 g     F .text	0000007c memcmp
00099bb8 g     F .text	00000050 altera_avalon_jtag_uart_close_fd
000a18d4 g       *ABS*	00000000 __alt_stack_base
00099c08 g     F .text	00000054 altera_avalon_jtag_uart_ioctl_fd
0008d81c g     F .text	00000154 __swsetup_r
00097150 g     F .text	000008e8 .hidden __divdf3
0008f6c0 g     F .text	00000118 __sfp
00091fbc g     F .text	00000078 __copybits
0009d74c g     O .rwdata	00000408 __malloc_av_
0008f80c g     F .text	00000004 __sinit_lock_release
0008d6f8 g     F .text	000000f0 _vsnprintf_r
000887e4 g     F .text	00000078 i2c_stop
00097c90 g     F .text	00000718 .hidden __muldf3
000a13bd g     O .bss	00000001 bInputSignalType
00092854 g     F .text	00000054 __sread
0009b1b4 g     F .text	00000108 alt_find_file
00082228 g     F .text	0000028c ProgramDEGenModeByID
0009a934 g     F .text	000000a4 alt_dev_llist_insert
00099488 g     F .text	00000024 __malloc_lock
0009966c g     F .text	000000b0 sbrk
0008924c g     F .text	000021d8 ___svfprintf_internal_r
00087c64 g     F .text	00000054 I2C_Read_Byte
0008f414 g     F .text	0000005c _fflush_r
000956cc g     F .text	000000c4 _calloc_r
00087aa8 g     F .text	0000004c HDMITX_WriteI2C_Byte
000a13a8 g       *ABS*	00000000 __bss_start
000877a4 g     F .text	00000068 ErrorF
00090f9c g     F .text	00000128 memset
00088248 g     F .text	00000130 main
000a1414 g     O .bss	00000004 alt_envp
000a13fc g     O .bss	00000004 __malloc_max_total_mem
00088b94 g     F .text	0000007c myprintf_hexarray
00099b58 g     F .text	00000060 altera_avalon_jtag_uart_write_fd
0008898c g     F .text	00000168 i2c_read
00095600 g     F .text	00000018 __swbuf
0009c7b0 g     O .rwdata	00000010 InitInstanceData
000a13ec g     O .bss	00000004 gVpgColor
00087938 g     F .text	0000007c HDMITX_DumpAllReg
00092988 g     F .text	00000008 __sclose
000cfec0 g       *ABS*	00000000 __alt_heap_limit
00095880 g     F .text	00000014 fclose
0008db70 g     F .text	00001688 _dtoa_r
00090550 g     F .text	0000080c _malloc_r
00095d68 g     F .text	00000030 __ascii_wctomb
0009ed98 g     O .rwdata	00000004 alt_errno
00087ba8 g     F .text	000000bc HDMITX_WriteI2C_ByteN
00090130 g     F .text	000000c4 _fwalk
00080c50 g     F .text	00000068 HDMITX_Init
000811f8 g     F .text	00000040 HDMITX_SetOutputColorDepth
00092160 g     F .text	000000c8 putc
00088c94 g     F .text	00000084 .hidden __divsi3
0008f840 g     F .text	00000124 _malloc_trim_r
0009b820 g       *ABS*	00000000 __CTOR_END__
00092990 g     F .text	000000dc strcmp
0009b820 g       *ABS*	00000000 __flash_rodata_start
000a13bc g     O .bss	00000001 bInputColorMode
0009b820 g       *ABS*	00000000 __DTOR_LIST__
00081238 g     F .text	000001f8 HDMITX_DevLoopProc
00097a38 g     F .text	00000088 .hidden __nedf2
000a13b8 g     O .bss	00000004 bChangeMode
00099a58 g     F .text	00000038 alt_irq_init
00099608 g     F .text	00000064 alt_release_fd
00087778 g     F .text	0000002c EnableDebugMessage
00089148 g     F .text	0000006c sprintf
0009c684 g     O .rodata	00000100 .hidden __clz_tab
00088af4 g     F .text	00000034 debug_output
000a13f0 g     O .bss	00000004 _PathLocale
0009b48c g     F .text	00000014 atexit
00095618 g     F .text	00000060 _write_r
00090370 g     F .text	00000018 setlocale
0009ed70 g     O .rwdata	00000004 _impure_ptr
000a140c g     O .bss	00000004 alt_argc
0008f1f8 g     F .text	0000021c __sflush_r
00087ddc g     F .text	000000c4 I2C_Write_ByteN
0009aa38 g     F .text	00000060 _do_dtors
0009035c g     F .text	00000008 __locale_cjk_lang
00088c10 g     F .text	00000084 myprintf_dwordarray
000a13d0 g     O .bss	00000004 bHDMIMode
00080020 g       .exceptions	00000000 alt_irq_entry
00091be8 g     F .text	00000064 __ulp
0008f828 g     F .text	00000018 __fp_unlock_all
0009ed84 g     O .rwdata	00000008 alt_fs_list
0009ed64 g     O .rwdata	00000004 gEnableColorDepth
000a13d4 g     O .bss	00000004 bAudioEnable
00080020 g       *ABS*	00000000 __ram_exceptions_start
00090388 g     F .text	0000000c localeconv
000a13d8 g     O .bss	00000001 VIC
0009aacc g     F .text	00000050 alt_ic_isr_register
0009edac g       *ABS*	00000000 _edata
00081584 g     F .text	00000128 InitIT6613
000a18d4 g       *ABS*	00000000 _end
00081fe0 g     F .text	0000008c SetAVMute
00095894 g     F .text	00000164 __fputwc
00080244 g       *ABS*	00000000 __ram_exceptions_end
0009a030 g     F .text	000000f0 altera_avalon_jtag_uart_ioctl
0009aba4 g     F .text	0000008c alt_ic_irq_disable
00086b8c g     F .text	0000012c HDMITX_SetOutput
000928b0 g     F .text	0000007c __swrite
0009ed7c g     O .rwdata	00000004 __malloc_trim_threshold
00090350 g     F .text	0000000c __locale_msgcharset
0009b4a0 g     F .text	00000038 exit
000901f4 g     F .text	000000c4 _fwalk_reent
000919ec g     F .text	000001fc __mdiff
0009c808 g     O .rwdata	00000012 bCSCMtx_YUV2RGB_ITU601_16_235
0008206c g     F .text	000000d4 SetOutputColorDepthPhase
00088d18 g     F .text	00000074 .hidden __modsi3
000cfec0 g       *ABS*	00000000 __alt_data_end
00080020 g     F .exceptions	00000000 alt_exception
0008f804 g     F .text	00000004 __sfp_lock_release
0009ed68 g     O .rwdata	00000004 gbPlayTone
000876bc g     F .text	0000003c OS_DelayMS
00081ee0 g     F .text	00000048 DisableAudioOutput
0009b7ec g     F .text	00000034 _exit
0009a654 g     F .text	0000012c alt_alarm_start
00090394 g     F .text	000001bc __smakebuf_r
000883d0 g     F .text	00000048 I2C_Close
0009c82c g     O .rwdata	00000012 bCSCMtx_YUV2RGB_ITU709_16_235
000891b4 g     F .text	00000098 strlen
0009afac g     F .text	00000154 open
00086cb8 g     F .text	000004c4 HDMITX_ChangeDisplayOption
00097ac0 g     F .text	000000dc .hidden __gedf2
000a17c4 g     O .bss	00000010 AviInfo
00080b20 g     F .text	00000130 HDMITX_ChipVerify
0009ed80 g     O .rwdata	00000004 __wctomb
00093f74 g     F .text	00000018 __sprint_r
0009aa98 g     F .text	00000034 alt_icache_flush_all
000a16ac g     O .bss	00000010 Instance
0009eda8 g     O .rwdata	00000004 alt_priority_mask
00087738 g     F .text	00000040 DelayMS
0009ab1c g     F .text	00000088 alt_ic_irq_enable
0008d61c g     F .text	0000001c __vfprintf_internal
00088124 g     F .text	00000124 SetupColorSpace
00095d98 g     F .text	0000005c _wctomb_r
000983a8 g     F .text	000008fc .hidden __subdf3
000a13be g     O .bss	00000001 iVideoModeSelect
00091420 g     F .text	000000b0 __lo0bits
0009eda0 g     O .rwdata	00000008 alt_alarm_list
0009a9d8 g     F .text	00000060 _do_ctors
000a13bf g     O .bss	00000001 bOutputColorMode
00095ca8 g     F .text	000000c0 wcrtomb
00098f48 g     F .text	000000d0 close
000a13e8 g     O .bss	00000004 gVpgMode
00099278 g     F .text	00000084 alt_load
0008d6f4 g     F .text	00000004 vfprintf
00087364 g     F .text	000000c4 ConfigAudioInfoFrm
00087428 g     F .text	00000294 ParseEDID
00095a1c g     F .text	00000080 fputwc
0008f808 g     F .text	00000004 __sinit_lock_acquire
00091194 g     F .text	00000120 __multadd
0009116c g     F .text	00000028 _Bfree



Disassembly of section .entry:

00080000 <__reset>:
#if NIOS2_ICACHE_SIZE > 0 && defined(ALT_ALLOW_CODE_AT_RESET) && (!defined(ALT_SIM_OPTIMIZE) || defined(NIOS2_ECC_PRESENT))
    /* Assume the instruction cache size is always a power of two. */
#if NIOS2_ICACHE_SIZE > 0x8000
    movhi r2, %hi(NIOS2_ICACHE_SIZE)
#else
    movui r2, NIOS2_ICACHE_SIZE
   80000:	00880014 	movui	r2,8192
#endif

0:
    initi r2
   80004:	1001483a 	initi	r2
    addi r2, r2, -NIOS2_ICACHE_LINE_SIZE
   80008:	10bff804 	addi	r2,r2,-32
    bgt r2, zero, 0b
   8000c:	00bffd16 	blt	zero,r2,80004 <__alt_data_end+0xfffb0144>
 * Jump to the _start entry point in the .text section if reset code
 * is allowed or if optimizing for RTL simulation.
 */
#if defined(ALT_ALLOW_CODE_AT_RESET) || defined(ALT_SIM_OPTIMIZE)
    /* Jump to the _start entry point in the .text section. */
    movhi r1, %hi(_start)
   80010:	00400234 	movhi	at,8
    ori r1, r1, %lo(_start)
   80014:	08409114 	ori	at,at,580
    jmp r1
   80018:	0800683a 	jmp	at
   8001c:	00000000 	call	0 <__reset-0x80000>

Disassembly of section .exceptions:

00080020 <alt_exception>:

#else /* ALT_EXCEPTION_STACK disabled */
        /* 
         * Reserve space on normal stack for registers about to be pushed.
         */
        addi  sp, sp, -76
   80020:	deffed04 	addi	sp,sp,-76
         * documentation for details).
         *
         * Leave a gap in the stack frame at 4(sp) for the muldiv handler to
         * store zero into.
         */
        stw   ra,  0(sp)
   80024:	dfc00015 	stw	ra,0(sp)
        stw   r1,   8(sp)
   80028:	d8400215 	stw	at,8(sp)
        stw   r2,  12(sp)
   8002c:	d8800315 	stw	r2,12(sp)
        stw   r3,  16(sp)
   80030:	d8c00415 	stw	r3,16(sp)
        stw   r4,  20(sp)
   80034:	d9000515 	stw	r4,20(sp)
        stw   r5,  24(sp)
   80038:	d9400615 	stw	r5,24(sp)
        stw   r6,  28(sp)
   8003c:	d9800715 	stw	r6,28(sp)
        stw   r7,  32(sp)
   80040:	d9c00815 	stw	r7,32(sp)
        rdctl r5, estatus   /* Read early to avoid usage stall */
   80044:	000b307a 	rdctl	r5,estatus
        stw   r8,  36(sp)
   80048:	da000915 	stw	r8,36(sp)
        stw   r9,  40(sp)
   8004c:	da400a15 	stw	r9,40(sp)
        stw   r10, 44(sp)
   80050:	da800b15 	stw	r10,44(sp)
        stw   r11, 48(sp)
   80054:	dac00c15 	stw	r11,48(sp)
        stw   r12, 52(sp)
   80058:	db000d15 	stw	r12,52(sp)
        stw   r13, 56(sp)
   8005c:	db400e15 	stw	r13,56(sp)
        stw   r14, 60(sp)
   80060:	db800f15 	stw	r14,60(sp)
        stw   r15, 64(sp)
   80064:	dbc01015 	stw	r15,64(sp)
        /*
         * ea-4 contains the address of the instruction being executed
         * when the exception occured. For interrupt exceptions, we will
         * will be re-issue the isntruction. Store it in 72(sp)
         */
        stw   r5,  68(sp)  /* estatus */
   80068:	d9401115 	stw	r5,68(sp)
        addi  r15, ea, -4  /* instruction that caused exception */
   8006c:	ebffff04 	addi	r15,ea,-4
        stw   r15,  72(sp)
   80070:	dbc01215 	stw	r15,72(sp)
#else
        /*
         * Test to see if the exception was a software exception or caused 
         * by an external interrupt, and vector accordingly.
         */
        rdctl r4, ipending
   80074:	0009313a 	rdctl	r4,ipending
        andi  r2, r5, 1
   80078:	2880004c 	andi	r2,r5,1
        beq   r2, zero, .Lnot_irq
   8007c:	10000326 	beq	r2,zero,8008c <alt_exception+0x6c>
        beq   r4, zero, .Lnot_irq
   80080:	20000226 	beq	r4,zero,8008c <alt_exception+0x6c>
        /*
         * Now that all necessary registers have been preserved, call 
         * alt_irq_handler() to process the interrupts.
         */

        call alt_irq_handler
   80084:	00800fc0 	call	800fc <alt_irq_handler>

        .section .exceptions.irqreturn, "xa"

        br    .Lexception_exit
   80088:	00000706 	br	800a8 <alt_exception+0x88>
         * upon completion, so we write ea (address of instruction *after*
         * the one where the exception occured) into 72(sp). The actual
         * instruction that caused the exception is written in r2, which these
         * handlers will utilize.
         */
        stw ea, 72(sp) /* EA is PC+4 so will skip over instruction causing exception */
   8008c:	df401215 	stw	ea,72(sp)
.Lunknown_16bit:
        addi.n r4, r4, 2 /* Need PC+2 to skip over instruction causing exception */
        stw r4, 72(sp)

#else /* CDX is not Enabled and all instructions are 32bits */
        ldw r2, -4(ea) /* Instruction value that caused exception */
   80090:	e8bfff17 	ldw	r2,-4(ea)
         * debugger is present) or go into an infinite loop since the
         * handling behavior is undefined; in that case we will not return here.
         */

        /* Load exception-causing address as first argument (r4) */
        addi   r4, ea, -4
   80094:	e93fff04 	addi	r4,ea,-4

        /* Call the instruction-exception entry */
        call   alt_instruction_exception_entry
   80098:	00801d00 	call	801d0 <alt_instruction_exception_entry>
         * instruction
         *
         * Return code was 0: Skip. The instruction after the exception is
         * already stored in 72(sp).
         */
        bne   r2, r0, .Lexception_exit
   8009c:	1000021e 	bne	r2,zero,800a8 <alt_exception+0x88>

        /*
         * Otherwise, modify 72(sp) to re-issue the instruction that caused the
         * exception.
         */
        addi  r15, ea, -4  /* instruction that caused exception */
   800a0:	ebffff04 	addi	r15,ea,-4
        stw   r15,  72(sp)
   800a4:	dbc01215 	stw	r15,72(sp)
        /* 
         * Restore the saved registers, so that all general purpose registers 
         * have been restored to their state at the time the interrupt occured.
         */

        ldw   r5,  68(sp)
   800a8:	d9401117 	ldw	r5,68(sp)
        ldw   ea,  72(sp)  /* This becomes the PC once eret is executed */
   800ac:	df401217 	ldw	ea,72(sp)
        ldw   ra,   0(sp)
   800b0:	dfc00017 	ldw	ra,0(sp)

        wrctl estatus, r5
   800b4:	2801707a 	wrctl	estatus,r5

        ldw   r1,   8(sp)
   800b8:	d8400217 	ldw	at,8(sp)
        ldw   r2,  12(sp)
   800bc:	d8800317 	ldw	r2,12(sp)
        ldw   r3,  16(sp)
   800c0:	d8c00417 	ldw	r3,16(sp)
        ldw   r4,  20(sp)
   800c4:	d9000517 	ldw	r4,20(sp)
        ldw   r5,  24(sp)
   800c8:	d9400617 	ldw	r5,24(sp)
        ldw   r6,  28(sp)
   800cc:	d9800717 	ldw	r6,28(sp)
        ldw   r7,  32(sp)
   800d0:	d9c00817 	ldw	r7,32(sp)

#if defined(ALT_EXCEPTION_STACK) && defined(ALT_STACK_CHECK)
        ldw   et, %gprel(alt_exception_old_stack_limit)(gp)
#endif

        ldw   r8,  36(sp)
   800d4:	da000917 	ldw	r8,36(sp)
        ldw   r9,  40(sp)
   800d8:	da400a17 	ldw	r9,40(sp)
        ldw   r10, 44(sp)
   800dc:	da800b17 	ldw	r10,44(sp)
        ldw   r11, 48(sp)
   800e0:	dac00c17 	ldw	r11,48(sp)
        ldw   r12, 52(sp)
   800e4:	db000d17 	ldw	r12,52(sp)
        ldw   r13, 56(sp)
   800e8:	db400e17 	ldw	r13,56(sp)
        ldw   r14, 60(sp)
   800ec:	db800f17 	ldw	r14,60(sp)
        ldw   r15, 64(sp)
   800f0:	dbc01017 	ldw	r15,64(sp)
        stw   et, %gprel(alt_stack_limit_value)(gp)
        stw   zero, %gprel(alt_exception_old_stack_limit)(gp)
#endif /* ALT_STACK_CHECK */
        ldw   sp,  76(sp)
#else /* ALT_EXCEPTION_STACK disabled */
        addi  sp, sp, 76
   800f4:	dec01304 	addi	sp,sp,76

        /*
         * Return to the interrupted instruction.
         */

        eret
   800f8:	ef80083a 	eret

000800fc <alt_irq_handler>:
 * instruction is present if the macro ALT_CI_INTERRUPT_VECTOR defined.
 */

void alt_irq_handler (void) __attribute__ ((section (".exceptions")));
void alt_irq_handler (void)
{
   800fc:	defff904 	addi	sp,sp,-28
   80100:	dfc00615 	stw	ra,24(sp)
   80104:	df000515 	stw	fp,20(sp)
   80108:	df000504 	addi	fp,sp,20
  
  /*
   * Notify the operating system that we are at interrupt level.
   */ 
  
  ALT_OS_INT_ENTER();
   8010c:	0001883a 	nop
#ifndef NIOS2_EIC_PRESENT
static ALT_INLINE alt_u32 ALT_ALWAYS_INLINE alt_irq_pending (void)
{
  alt_u32 active;

  NIOS2_READ_IPENDING (active);
   80110:	0005313a 	rdctl	r2,ipending
   80114:	e0bffe15 	stw	r2,-8(fp)

  return active;
   80118:	e0bffe17 	ldw	r2,-8(fp)
   * Consider the case where the high priority interupt is asserted during
   * the interrupt entry sequence for a lower priority interrupt to see why
   * this is the case.
   */

  active = alt_irq_pending ();
   8011c:	e0bffb15 	stw	r2,-20(fp)

  do
  {
    i = 0;
   80120:	e03ffd15 	stw	zero,-12(fp)
    mask = 1;
   80124:	00800044 	movi	r2,1
   80128:	e0bffc15 	stw	r2,-16(fp)
     * called to clear the interrupt condition.
     */

    do
    {
      if (active & mask)
   8012c:	e0fffb17 	ldw	r3,-20(fp)
   80130:	e0bffc17 	ldw	r2,-16(fp)
   80134:	1884703a 	and	r2,r3,r2
   80138:	10001426 	beq	r2,zero,8018c <alt_irq_handler+0x90>
      { 
#ifdef ALT_ENHANCED_INTERRUPT_API_PRESENT
        alt_irq[i].handler(alt_irq[i].context); 
   8013c:	008002b4 	movhi	r2,10
   80140:	1085f504 	addi	r2,r2,6100
   80144:	e0fffd17 	ldw	r3,-12(fp)
   80148:	180690fa 	slli	r3,r3,3
   8014c:	10c5883a 	add	r2,r2,r3
   80150:	10c00017 	ldw	r3,0(r2)
   80154:	008002b4 	movhi	r2,10
   80158:	1085f504 	addi	r2,r2,6100
   8015c:	e13ffd17 	ldw	r4,-12(fp)
   80160:	200890fa 	slli	r4,r4,3
   80164:	1105883a 	add	r2,r2,r4
   80168:	10800104 	addi	r2,r2,4
   8016c:	10800017 	ldw	r2,0(r2)
   80170:	1009883a 	mov	r4,r2
   80174:	183ee83a 	callr	r3
#else
        alt_irq[i].handler(alt_irq[i].context, i); 
#endif
        break;
   80178:	0001883a 	nop
#ifndef NIOS2_EIC_PRESENT
static ALT_INLINE alt_u32 ALT_ALWAYS_INLINE alt_irq_pending (void)
{
  alt_u32 active;

  NIOS2_READ_IPENDING (active);
   8017c:	0005313a 	rdctl	r2,ipending
   80180:	e0bfff15 	stw	r2,-4(fp)

  return active;
   80184:	e0bfff17 	ldw	r2,-4(fp)
   80188:	00000706 	br	801a8 <alt_irq_handler+0xac>
      }
      mask <<= 1;
   8018c:	e0bffc17 	ldw	r2,-16(fp)
   80190:	1085883a 	add	r2,r2,r2
   80194:	e0bffc15 	stw	r2,-16(fp)
      i++;
   80198:	e0bffd17 	ldw	r2,-12(fp)
   8019c:	10800044 	addi	r2,r2,1
   801a0:	e0bffd15 	stw	r2,-12(fp)

    } while (1);
   801a4:	003fe106 	br	8012c <__alt_data_end+0xfffb026c>

    active = alt_irq_pending ();
   801a8:	e0bffb15 	stw	r2,-20(fp)
    
  } while (active);
   801ac:	e0bffb17 	ldw	r2,-20(fp)
   801b0:	103fdb1e 	bne	r2,zero,80120 <__alt_data_end+0xfffb0260>

  /*
   * Notify the operating system that interrupt processing is complete.
   */ 

  ALT_OS_INT_EXIT();
   801b4:	0001883a 	nop
}
   801b8:	0001883a 	nop
   801bc:	e037883a 	mov	sp,fp
   801c0:	dfc00117 	ldw	ra,4(sp)
   801c4:	df000017 	ldw	fp,0(sp)
   801c8:	dec00204 	addi	sp,sp,8
   801cc:	f800283a 	ret

000801d0 <alt_instruction_exception_entry>:
 * that handler if it has been registered. Absent a handler, it will
 * break break or hang as discussed below.
 */
int 
alt_instruction_exception_entry (alt_u32 exception_pc)
{
   801d0:	defffb04 	addi	sp,sp,-20
   801d4:	dfc00415 	stw	ra,16(sp)
   801d8:	df000315 	stw	fp,12(sp)
   801dc:	df000304 	addi	fp,sp,12
   801e0:	e13fff15 	stw	r4,-4(fp)
 * NIOS2_EXCEPTION_CAUSE_NOT_PRESENT. Your handling routine should
 * check the validity of the cause argument before proceeding.
 */
#ifdef NIOS2_HAS_EXTRA_EXCEPTION_INFO
  /* Get exception cause & "badaddr" */
  NIOS2_READ_EXCEPTION(cause);
   801e4:	000531fa 	rdctl	r2,exception
   801e8:	e0bffd15 	stw	r2,-12(fp)
  cause = ( (cause & NIOS2_EXCEPTION_REG_CAUSE_MASK) >>
   801ec:	e0bffd17 	ldw	r2,-12(fp)
   801f0:	10801f0c 	andi	r2,r2,124
   801f4:	1004d0ba 	srli	r2,r2,2
   801f8:	e0bffd15 	stw	r2,-12(fp)
              NIOS2_EXCEPTION_REG_CAUSE_OFST );

  NIOS2_READ_BADADDR(badaddr);
   801fc:	0005333a 	rdctl	r2,badaddr
   80200:	e0bffe15 	stw	r2,-8(fp)
#else
  cause = NIOS2_EXCEPTION_CAUSE_NOT_PRESENT;
  badaddr = 0;
#endif /* NIOS2_HAS_EXTRA_EXCEPTION_INFO */

  if(alt_instruction_exception_handler) {
   80204:	d0a9b217 	ldw	r2,-22840(gp)
   80208:	10000726 	beq	r2,zero,80228 <alt_instruction_exception_entry+0x58>
     * Call handler. Its return value indicates whether the exception-causing
     * instruction should be re-issued. The code that called us,
     * alt_eceptions_entry.S, will look at this value and adjust the ea
     * register as necessary
     */
    return alt_instruction_exception_handler(cause, exception_pc, badaddr);
   8020c:	d0a9b217 	ldw	r2,-22840(gp)
   80210:	e0fffd17 	ldw	r3,-12(fp)
   80214:	e1bffe17 	ldw	r6,-8(fp)
   80218:	e17fff17 	ldw	r5,-4(fp)
   8021c:	1809883a 	mov	r4,r3
   80220:	103ee83a 	callr	r2
   80224:	00000206 	br	80230 <alt_instruction_exception_entry+0x60>
   *    (a peripheral which negates its interrupt output before its
   *    interrupt handler has been executed will cause spurious interrupts)
   */
  else {
#ifdef NIOS2_HAS_DEBUG_STUB
    NIOS2_BREAK();
   80228:	003da03a 	break	0
      ;
#endif /* NIOS2_HAS_DEBUG_STUB */
  }

  /* We should not get here. Remove compiler warning. */
  return NIOS2_EXCEPTION_RETURN_REISSUE_INST;
   8022c:	0005883a 	mov	r2,zero
}
   80230:	e037883a 	mov	sp,fp
   80234:	dfc00117 	ldw	ra,4(sp)
   80238:	df000017 	ldw	fp,0(sp)
   8023c:	dec00204 	addi	sp,sp,8
   80240:	f800283a 	ret

Disassembly of section .text:

00080244 <_start>:

    /*
     * Now that the caches are initialized, set up the stack pointer and global pointer.
     * The values provided by the linker are assumed to be correctly aligned.
     */
    movhi sp, %hi(__alt_stack_pointer)
   80244:	06c00334 	movhi	sp,12
    ori sp, sp, %lo(__alt_stack_pointer)
   80248:	deffb014 	ori	sp,sp,65216
    movhi gp, %hi(_gp)
   8024c:	068002b4 	movhi	gp,10
    ori gp, gp, %lo(_gp)
   80250:	d69b5714 	ori	gp,gp,27996
 */
#ifndef ALT_SIM_OPTIMIZE
    /* Log that the BSS is about to be cleared. */
    ALT_LOG_PUTS(alt_log_msg_bss)

    movhi r2, %hi(__bss_start)
   80254:	008002b4 	movhi	r2,10
    ori r2, r2, %lo(__bss_start)
   80258:	1084ea14 	ori	r2,r2,5032

    movhi r3, %hi(__bss_end)
   8025c:	00c002b4 	movhi	r3,10
    ori r3, r3, %lo(__bss_end)
   80260:	18c63514 	ori	r3,r3,6356

    beq r2, r3, 1f
   80264:	10c00326 	beq	r2,r3,80274 <_start+0x30>

0:
    stw zero, (r2)
   80268:	10000015 	stw	zero,0(r2)
    addi r2, r2, 4
   8026c:	10800104 	addi	r2,r2,4
    bltu r2, r3, 0b
   80270:	10fffd36 	bltu	r2,r3,80268 <__alt_data_end+0xfffb03a8>
     * section aren't defined until alt_load() has been called).
     */
    mov   et, zero
#endif

    call alt_load
   80274:	00992780 	call	99278 <alt_load>

    /* Log that alt_main is about to be called. */
    ALT_LOG_PUTS(alt_log_msg_alt_main)

    /* Call the C entry point. It should never return. */
    call alt_main
   80278:	009940c0 	call	9940c <alt_main>

0008027c <alt_after_alt_main>:

    /* Wait in infinite loop in case alt_main does return. */
alt_after_alt_main:
    br alt_after_alt_main
   8027c:	003fff06 	br	8027c <__alt_data_end+0xfffb03bc>

00080280 <EDIDCheckSum>:
#ifdef SUPPORT_EDID
static SYS_STATUS EDIDCheckSum(BYTE *pEDID) ;

static SYS_STATUS
EDIDCheckSum(BYTE *pEDID)
{
   80280:	defffc04 	addi	sp,sp,-16
   80284:	df000315 	stw	fp,12(sp)
   80288:	df000304 	addi	fp,sp,12
   8028c:	e13fff15 	stw	r4,-4(fp)
    BYTE CheckSum ;
    int i ;

	if( !pEDID )
   80290:	e0bfff17 	ldw	r2,-4(fp)
   80294:	1000021e 	bne	r2,zero,802a0 <EDIDCheckSum+0x20>
	{
		return ER_FAIL ;
   80298:	00800044 	movi	r2,1
   8029c:	00001306 	br	802ec <EDIDCheckSum+0x6c>
	}
    for( i = 0, CheckSum = 0 ; i < 128 ; i++ )
   802a0:	e03ffe15 	stw	zero,-8(fp)
   802a4:	e03ffd05 	stb	zero,-12(fp)
   802a8:	00000a06 	br	802d4 <EDIDCheckSum+0x54>
    {
        CheckSum += pEDID[i] ; CheckSum &= 0xFF ;
   802ac:	e0bffe17 	ldw	r2,-8(fp)
   802b0:	e0ffff17 	ldw	r3,-4(fp)
   802b4:	1885883a 	add	r2,r3,r2
   802b8:	10c00003 	ldbu	r3,0(r2)
   802bc:	e0bffd03 	ldbu	r2,-12(fp)
   802c0:	1885883a 	add	r2,r3,r2
   802c4:	e0bffd05 	stb	r2,-12(fp)

	if( !pEDID )
	{
		return ER_FAIL ;
	}
    for( i = 0, CheckSum = 0 ; i < 128 ; i++ )
   802c8:	e0bffe17 	ldw	r2,-8(fp)
   802cc:	10800044 	addi	r2,r2,1
   802d0:	e0bffe15 	stw	r2,-8(fp)
   802d4:	e0bffe17 	ldw	r2,-8(fp)
   802d8:	10802010 	cmplti	r2,r2,128
   802dc:	103ff31e 	bne	r2,zero,802ac <__alt_data_end+0xfffb03ec>
    {
        CheckSum += pEDID[i] ; CheckSum &= 0xFF ;
    }
    
    return (CheckSum == 0)?ER_SUCCESS:ER_FAIL ;
   802e0:	e0bffd03 	ldbu	r2,-12(fp)
   802e4:	1004c03a 	cmpne	r2,r2,zero
   802e8:	10803fcc 	andi	r2,r2,255
}
   802ec:	e037883a 	mov	sp,fp
   802f0:	df000017 	ldw	fp,0(sp)
   802f4:	dec00104 	addi	sp,sp,4
   802f8:	f800283a 	ret

000802fc <ParseVESAEDID>:

SYS_STATUS
ParseVESAEDID(BYTE *pEDID)
{
   802fc:	defffd04 	addi	sp,sp,-12
   80300:	dfc00215 	stw	ra,8(sp)
   80304:	df000115 	stw	fp,4(sp)
   80308:	df000104 	addi	fp,sp,4
   8030c:	e13fff15 	stw	r4,-4(fp)
    if( ER_SUCCESS != EDIDCheckSum(pEDID) ) return ER_FAIL ;
   80310:	e13fff17 	ldw	r4,-4(fp)
   80314:	00802800 	call	80280 <EDIDCheckSum>
   80318:	10000226 	beq	r2,zero,80324 <ParseVESAEDID+0x28>
   8031c:	00800044 	movi	r2,1
   80320:	00003006 	br	803e4 <ParseVESAEDID+0xe8>
    
	if( pEDID[0] != 0 || 
   80324:	e0bfff17 	ldw	r2,-4(fp)
   80328:	10800003 	ldbu	r2,0(r2)
   8032c:	10803fcc 	andi	r2,r2,255
   80330:	1000291e 	bne	r2,zero,803d8 <ParseVESAEDID+0xdc>
	    pEDID[7] != 0 || 
   80334:	e0bfff17 	ldw	r2,-4(fp)
   80338:	108001c4 	addi	r2,r2,7
   8033c:	10800003 	ldbu	r2,0(r2)
SYS_STATUS
ParseVESAEDID(BYTE *pEDID)
{
    if( ER_SUCCESS != EDIDCheckSum(pEDID) ) return ER_FAIL ;
    
	if( pEDID[0] != 0 || 
   80340:	10803fcc 	andi	r2,r2,255
   80344:	1000241e 	bne	r2,zero,803d8 <ParseVESAEDID+0xdc>
	    pEDID[7] != 0 || 
	    pEDID[1] != 0xFF || 
   80348:	e0bfff17 	ldw	r2,-4(fp)
   8034c:	10800044 	addi	r2,r2,1
   80350:	10800003 	ldbu	r2,0(r2)
ParseVESAEDID(BYTE *pEDID)
{
    if( ER_SUCCESS != EDIDCheckSum(pEDID) ) return ER_FAIL ;
    
	if( pEDID[0] != 0 || 
	    pEDID[7] != 0 || 
   80354:	10803fcc 	andi	r2,r2,255
   80358:	10803fd8 	cmpnei	r2,r2,255
   8035c:	10001e1e 	bne	r2,zero,803d8 <ParseVESAEDID+0xdc>
	    pEDID[1] != 0xFF || 
	    pEDID[2] != 0xFF || 
   80360:	e0bfff17 	ldw	r2,-4(fp)
   80364:	10800084 	addi	r2,r2,2
   80368:	10800003 	ldbu	r2,0(r2)
{
    if( ER_SUCCESS != EDIDCheckSum(pEDID) ) return ER_FAIL ;
    
	if( pEDID[0] != 0 || 
	    pEDID[7] != 0 || 
	    pEDID[1] != 0xFF || 
   8036c:	10803fcc 	andi	r2,r2,255
   80370:	10803fd8 	cmpnei	r2,r2,255
   80374:	1000181e 	bne	r2,zero,803d8 <ParseVESAEDID+0xdc>
	    pEDID[2] != 0xFF || 
	    pEDID[3] != 0xFF || 
   80378:	e0bfff17 	ldw	r2,-4(fp)
   8037c:	108000c4 	addi	r2,r2,3
   80380:	10800003 	ldbu	r2,0(r2)
    if( ER_SUCCESS != EDIDCheckSum(pEDID) ) return ER_FAIL ;
    
	if( pEDID[0] != 0 || 
	    pEDID[7] != 0 || 
	    pEDID[1] != 0xFF || 
	    pEDID[2] != 0xFF || 
   80384:	10803fcc 	andi	r2,r2,255
   80388:	10803fd8 	cmpnei	r2,r2,255
   8038c:	1000121e 	bne	r2,zero,803d8 <ParseVESAEDID+0xdc>
	    pEDID[3] != 0xFF || 
	    pEDID[4] != 0xFF || 
   80390:	e0bfff17 	ldw	r2,-4(fp)
   80394:	10800104 	addi	r2,r2,4
   80398:	10800003 	ldbu	r2,0(r2)
    
	if( pEDID[0] != 0 || 
	    pEDID[7] != 0 || 
	    pEDID[1] != 0xFF || 
	    pEDID[2] != 0xFF || 
	    pEDID[3] != 0xFF || 
   8039c:	10803fcc 	andi	r2,r2,255
   803a0:	10803fd8 	cmpnei	r2,r2,255
   803a4:	10000c1e 	bne	r2,zero,803d8 <ParseVESAEDID+0xdc>
	    pEDID[4] != 0xFF || 
	    pEDID[5] != 0xFF || 
   803a8:	e0bfff17 	ldw	r2,-4(fp)
   803ac:	10800144 	addi	r2,r2,5
   803b0:	10800003 	ldbu	r2,0(r2)
	if( pEDID[0] != 0 || 
	    pEDID[7] != 0 || 
	    pEDID[1] != 0xFF || 
	    pEDID[2] != 0xFF || 
	    pEDID[3] != 0xFF || 
	    pEDID[4] != 0xFF || 
   803b4:	10803fcc 	andi	r2,r2,255
   803b8:	10803fd8 	cmpnei	r2,r2,255
   803bc:	1000061e 	bne	r2,zero,803d8 <ParseVESAEDID+0xdc>
	    pEDID[5] != 0xFF || 
	    pEDID[6] != 0xFF )
   803c0:	e0bfff17 	ldw	r2,-4(fp)
   803c4:	10800184 	addi	r2,r2,6
   803c8:	10800003 	ldbu	r2,0(r2)
	    pEDID[7] != 0 || 
	    pEDID[1] != 0xFF || 
	    pEDID[2] != 0xFF || 
	    pEDID[3] != 0xFF || 
	    pEDID[4] != 0xFF || 
	    pEDID[5] != 0xFF || 
   803cc:	10803fcc 	andi	r2,r2,255
   803d0:	10803fe0 	cmpeqi	r2,r2,255
   803d4:	1000021e 	bne	r2,zero,803e0 <ParseVESAEDID+0xe4>
	    pEDID[6] != 0xFF )
	{
		return ER_FAIL ; // not a EDID 1.3 standard block.
   803d8:	00800044 	movi	r2,1
   803dc:	00000106 	br	803e4 <ParseVESAEDID+0xe8>

	/////////////////////////////////////////////////////////
	// if need to parse EDID property , put here.
	/////////////////////////////////////////////////////////
	
    return ER_SUCCESS ;
   803e0:	0005883a 	mov	r2,zero

}
   803e4:	e037883a 	mov	sp,fp
   803e8:	dfc00117 	ldw	ra,4(sp)
   803ec:	df000017 	ldw	fp,0(sp)
   803f0:	dec00204 	addi	sp,sp,8
   803f4:	f800283a 	ret

000803f8 <ParseCEAEDID>:

SYS_STATUS
ParseCEAEDID(BYTE *pCEAEDID, RX_CAP *pRxCap)
{
   803f8:	defff704 	addi	sp,sp,-36
   803fc:	dfc00815 	stw	ra,32(sp)
   80400:	df000715 	stw	fp,28(sp)
   80404:	dc400615 	stw	r17,24(sp)
   80408:	dc000515 	stw	r16,20(sp)
   8040c:	df000704 	addi	fp,sp,28
   80410:	e13ffc15 	stw	r4,-16(fp)
   80414:	e17ffd15 	stw	r5,-12(fp)
    BYTE offset,End ;
    BYTE count ;
    BYTE tag ;
    int i ;

	if( !pCEAEDID || !pRxCap ) return ER_FAIL ;
   80418:	e0bffc17 	ldw	r2,-16(fp)
   8041c:	10000226 	beq	r2,zero,80428 <ParseCEAEDID+0x30>
   80420:	e0bffd17 	ldw	r2,-12(fp)
   80424:	1000021e 	bne	r2,zero,80430 <ParseCEAEDID+0x38>
   80428:	00800044 	movi	r2,1
   8042c:	0001b506 	br	80b04 <ParseCEAEDID+0x70c>

    pRxCap->ValidCEA = FALSE ;
   80430:	e0bffd17 	ldw	r2,-12(fp)
   80434:	11003d83 	ldbu	r4,246(r2)
   80438:	00ffff84 	movi	r3,-2
   8043c:	20c6703a 	and	r3,r4,r3
   80440:	10c03d85 	stb	r3,246(r2)
    
    if( ER_SUCCESS != EDIDCheckSum(pCEAEDID) ) return ER_FAIL ;
   80444:	e13ffc17 	ldw	r4,-16(fp)
   80448:	00802800 	call	80280 <EDIDCheckSum>
   8044c:	10000226 	beq	r2,zero,80458 <ParseCEAEDID+0x60>
   80450:	00800044 	movi	r2,1
   80454:	0001ab06 	br	80b04 <ParseCEAEDID+0x70c>

    if( pCEAEDID[0] != 0x02 || pCEAEDID[1] != 0x03 ) return ER_SUCCESS ; // not a CEA BLOCK.
   80458:	e0bffc17 	ldw	r2,-16(fp)
   8045c:	10800003 	ldbu	r2,0(r2)
   80460:	10803fcc 	andi	r2,r2,255
   80464:	10800098 	cmpnei	r2,r2,2
   80468:	1000061e 	bne	r2,zero,80484 <ParseCEAEDID+0x8c>
   8046c:	e0bffc17 	ldw	r2,-16(fp)
   80470:	10800044 	addi	r2,r2,1
   80474:	10800003 	ldbu	r2,0(r2)
   80478:	10803fcc 	andi	r2,r2,255
   8047c:	108000e0 	cmpeqi	r2,r2,3
   80480:	1000021e 	bne	r2,zero,8048c <ParseCEAEDID+0x94>
   80484:	0005883a 	mov	r2,zero
   80488:	00019e06 	br	80b04 <ParseCEAEDID+0x70c>
    End = pCEAEDID[2]  ; // CEA description.
   8048c:	e0bffc17 	ldw	r2,-16(fp)
   80490:	10800083 	ldbu	r2,2(r2)
   80494:	e0bffb05 	stb	r2,-20(fp)
    pRxCap->VideoMode = pCEAEDID[3] ;
   80498:	e0bffc17 	ldw	r2,-16(fp)
   8049c:	10c000c3 	ldbu	r3,3(r2)
   804a0:	e0bffd17 	ldw	r2,-12(fp)
   804a4:	10c00045 	stb	r3,1(r2)
    
    if (pRxCap->VideoMode & CEA_SUPPORT_YUV444)
   804a8:	e0bffd17 	ldw	r2,-12(fp)
   804ac:	10800043 	ldbu	r2,1(r2)
   804b0:	10803fcc 	andi	r2,r2,255
   804b4:	1080080c 	andi	r2,r2,32
   804b8:	10000326 	beq	r2,zero,804c8 <ParseCEAEDID+0xd0>
        OS_PRINTF("Support Color: YUV444\n");
   804bc:	010002b4 	movhi	r4,10
   804c0:	212e0804 	addi	r4,r4,-18400
   804c4:	008780c0 	call	8780c <OS_PRINTF>
    if (pRxCap->VideoMode & CEA_SUPPORT_YUV422)
   804c8:	e0bffd17 	ldw	r2,-12(fp)
   804cc:	10800043 	ldbu	r2,1(r2)
   804d0:	10803fcc 	andi	r2,r2,255
   804d4:	1080040c 	andi	r2,r2,16
   804d8:	10000326 	beq	r2,zero,804e8 <ParseCEAEDID+0xf0>
        OS_PRINTF("Support Color: YUV422\n");
   804dc:	010002b4 	movhi	r4,10
   804e0:	212e0e04 	addi	r4,r4,-18376
   804e4:	008780c0 	call	8780c <OS_PRINTF>

    for( offset = 0 ; offset < 0x80 ; offset ++ )
   804e8:	e03ff905 	stb	zero,-28(fp)
   804ec:	00002606 	br	80588 <ParseCEAEDID+0x190>
    {
        if( (offset % 0x10) == 0 )
   804f0:	e0bff903 	ldbu	r2,-28(fp)
   804f4:	108003cc 	andi	r2,r2,15
   804f8:	10803fcc 	andi	r2,r2,255
   804fc:	1000061e 	bne	r2,zero,80518 <ParseCEAEDID+0x120>
        {
            ErrorF("[%02X]", offset ) ;
   80500:	e0bff903 	ldbu	r2,-28(fp)
   80504:	100b883a 	mov	r5,r2
   80508:	010002b4 	movhi	r4,10
   8050c:	212e1404 	addi	r4,r4,-18352
   80510:	00877a40 	call	877a4 <ErrorF>
   80514:	00000806 	br	80538 <ParseCEAEDID+0x140>
        }
        else if((offset%0x10)==0x08)
   80518:	e0bff903 	ldbu	r2,-28(fp)
   8051c:	108003cc 	andi	r2,r2,15
   80520:	10803fcc 	andi	r2,r2,255
   80524:	10800218 	cmpnei	r2,r2,8
   80528:	1000031e 	bne	r2,zero,80538 <ParseCEAEDID+0x140>
        {
            ErrorF( " -" ) ;
   8052c:	010002b4 	movhi	r4,10
   80530:	212e1604 	addi	r4,r4,-18344
   80534:	00877a40 	call	877a4 <ErrorF>
        }
        ErrorF(" %02X",pCEAEDID[offset]) ;
   80538:	e0bff903 	ldbu	r2,-28(fp)
   8053c:	e0fffc17 	ldw	r3,-16(fp)
   80540:	1885883a 	add	r2,r3,r2
   80544:	10800003 	ldbu	r2,0(r2)
   80548:	10803fcc 	andi	r2,r2,255
   8054c:	100b883a 	mov	r5,r2
   80550:	010002b4 	movhi	r4,10
   80554:	212e1704 	addi	r4,r4,-18340
   80558:	00877a40 	call	877a4 <ErrorF>
        if((offset%0x10)==0x0f)
   8055c:	e0bff903 	ldbu	r2,-28(fp)
   80560:	108003cc 	andi	r2,r2,15
   80564:	10803fcc 	andi	r2,r2,255
   80568:	108003d8 	cmpnei	r2,r2,15
   8056c:	1000031e 	bne	r2,zero,8057c <ParseCEAEDID+0x184>
        {
            ErrorF("\n") ;
   80570:	010002b4 	movhi	r4,10
   80574:	212e1904 	addi	r4,r4,-18332
   80578:	00877a40 	call	877a4 <ErrorF>
    if (pRxCap->VideoMode & CEA_SUPPORT_YUV444)
        OS_PRINTF("Support Color: YUV444\n");
    if (pRxCap->VideoMode & CEA_SUPPORT_YUV422)
        OS_PRINTF("Support Color: YUV422\n");

    for( offset = 0 ; offset < 0x80 ; offset ++ )
   8057c:	e0bff903 	ldbu	r2,-28(fp)
   80580:	10800044 	addi	r2,r2,1
   80584:	e0bff905 	stb	r2,-28(fp)
   80588:	e0bff903 	ldbu	r2,-28(fp)
   8058c:	10803fcc 	andi	r2,r2,255
   80590:	1080201c 	xori	r2,r2,128
   80594:	10bfe004 	addi	r2,r2,-128
   80598:	103fd50e 	bge	r2,zero,804f0 <__alt_data_end+0xfffb0630>
        {
            ErrorF("\n") ;
        }
    }
    
	pRxCap->VDOModeCount = 0 ;
   8059c:	e0bffd17 	ldw	r2,-12(fp)
   805a0:	10000085 	stb	zero,2(r2)
    pRxCap->idxNativeVDOMode = 0xff ;
   805a4:	e0bffd17 	ldw	r2,-12(fp)
   805a8:	00ffffc4 	movi	r3,-1
   805ac:	10c000c5 	stb	r3,3(r2)
    for( offset = 4 ; offset < End ; )
   805b0:	00800104 	movi	r2,4
   805b4:	e0bff905 	stb	r2,-28(fp)
   805b8:	00014a06 	br	80ae4 <ParseCEAEDID+0x6ec>
    {
        tag = pCEAEDID[offset] >> 5 ;
   805bc:	e0bff903 	ldbu	r2,-28(fp)
   805c0:	e0fffc17 	ldw	r3,-16(fp)
   805c4:	1885883a 	add	r2,r3,r2
   805c8:	10800003 	ldbu	r2,0(r2)
   805cc:	10803fcc 	andi	r2,r2,255
   805d0:	1004d17a 	srli	r2,r2,5
   805d4:	e0bffb45 	stb	r2,-19(fp)
        count = pCEAEDID[offset] & 0x1f ;
   805d8:	e0bff903 	ldbu	r2,-28(fp)
   805dc:	e0fffc17 	ldw	r3,-16(fp)
   805e0:	1885883a 	add	r2,r3,r2
   805e4:	10800003 	ldbu	r2,0(r2)
   805e8:	108007cc 	andi	r2,r2,31
   805ec:	e0bffb85 	stb	r2,-18(fp)
        switch( tag )
   805f0:	e0bffb43 	ldbu	r2,-19(fp)
   805f4:	10c00228 	cmpgeui	r3,r2,8
   805f8:	1801351e 	bne	r3,zero,80ad0 <ParseCEAEDID+0x6d8>
   805fc:	100690ba 	slli	r3,r2,2
   80600:	00800234 	movhi	r2,8
   80604:	10818504 	addi	r2,r2,1556
   80608:	1885883a 	add	r2,r3,r2
   8060c:	10800017 	ldw	r2,0(r2)
   80610:	1000683a 	jmp	r2
   80614:	00080ad0 	cmplti	zero,zero,8235
   80618:	00080634 	movhi	zero,8216
   8061c:	0008074c 	andi	zero,zero,8221
   80620:	00080828 	cmpgeui	zero,zero,8224
   80624:	00080a34 	movhi	zero,8232
   80628:	00080aa0 	cmpeqi	zero,zero,8234
   8062c:	00080ad0 	cmplti	zero,zero,8235
   80630:	00080ab8 	rdprs	zero,zero,8234
        {
        case 0x01: // Audio Data Block ;
            pRxCap->AUDDesCount = count/3 ;
   80634:	e0fffb83 	ldbu	r3,-18(fp)
   80638:	00aaaaf4 	movhi	r2,43691
   8063c:	10aaaac4 	addi	r2,r2,-21845
   80640:	1888383a 	mulxuu	r4,r3,r2
   80644:	1885383a 	mul	r2,r3,r2
   80648:	1021883a 	mov	r16,r2
   8064c:	2023883a 	mov	r17,r4
   80650:	8804d07a 	srli	r2,r17,1
   80654:	1007883a 	mov	r3,r2
   80658:	e0bffd17 	ldw	r2,-12(fp)
   8065c:	10c02105 	stb	r3,132(r2)
            offset++ ;
   80660:	e0bff903 	ldbu	r2,-28(fp)
   80664:	10800044 	addi	r2,r2,1
   80668:	e0bff905 	stb	r2,-28(fp)
            for( i = 0 ; i < pRxCap->AUDDesCount ; i++ )
   8066c:	e03ffa15 	stw	zero,-24(fp)
   80670:	00003006 	br	80734 <ParseCEAEDID+0x33c>
            {
                pRxCap->AUDDes[i].uc[0] = pCEAEDID[offset++] ;
   80674:	e0bff903 	ldbu	r2,-28(fp)
   80678:	10c00044 	addi	r3,r2,1
   8067c:	e0fff905 	stb	r3,-28(fp)
   80680:	10803fcc 	andi	r2,r2,255
   80684:	e0fffc17 	ldw	r3,-16(fp)
   80688:	1885883a 	add	r2,r3,r2
   8068c:	11000003 	ldbu	r4,0(r2)
   80690:	e17ffd17 	ldw	r5,-12(fp)
   80694:	e0fffa17 	ldw	r3,-24(fp)
   80698:	1805883a 	mov	r2,r3
   8069c:	1085883a 	add	r2,r2,r2
   806a0:	10c5883a 	add	r2,r2,r3
   806a4:	2885883a 	add	r2,r5,r2
   806a8:	10802144 	addi	r2,r2,133
   806ac:	11000005 	stb	r4,0(r2)
                pRxCap->AUDDes[i].uc[1] = pCEAEDID[offset++] ;
   806b0:	e0bff903 	ldbu	r2,-28(fp)
   806b4:	10c00044 	addi	r3,r2,1
   806b8:	e0fff905 	stb	r3,-28(fp)
   806bc:	10803fcc 	andi	r2,r2,255
   806c0:	e0fffc17 	ldw	r3,-16(fp)
   806c4:	1885883a 	add	r2,r3,r2
   806c8:	11000003 	ldbu	r4,0(r2)
   806cc:	e17ffd17 	ldw	r5,-12(fp)
   806d0:	e0fffa17 	ldw	r3,-24(fp)
   806d4:	1805883a 	mov	r2,r3
   806d8:	1085883a 	add	r2,r2,r2
   806dc:	10c5883a 	add	r2,r2,r3
   806e0:	2885883a 	add	r2,r5,r2
   806e4:	10802184 	addi	r2,r2,134
   806e8:	11000005 	stb	r4,0(r2)
                pRxCap->AUDDes[i].uc[2] = pCEAEDID[offset++] ;
   806ec:	e0bff903 	ldbu	r2,-28(fp)
   806f0:	10c00044 	addi	r3,r2,1
   806f4:	e0fff905 	stb	r3,-28(fp)
   806f8:	10803fcc 	andi	r2,r2,255
   806fc:	e0fffc17 	ldw	r3,-16(fp)
   80700:	1885883a 	add	r2,r3,r2
   80704:	11000003 	ldbu	r4,0(r2)
   80708:	e17ffd17 	ldw	r5,-12(fp)
   8070c:	e0fffa17 	ldw	r3,-24(fp)
   80710:	1805883a 	mov	r2,r3
   80714:	1085883a 	add	r2,r2,r2
   80718:	10c5883a 	add	r2,r2,r3
   8071c:	2885883a 	add	r2,r5,r2
   80720:	108021c4 	addi	r2,r2,135
   80724:	11000005 	stb	r4,0(r2)
        switch( tag )
        {
        case 0x01: // Audio Data Block ;
            pRxCap->AUDDesCount = count/3 ;
            offset++ ;
            for( i = 0 ; i < pRxCap->AUDDesCount ; i++ )
   80728:	e0bffa17 	ldw	r2,-24(fp)
   8072c:	10800044 	addi	r2,r2,1
   80730:	e0bffa15 	stw	r2,-24(fp)
   80734:	e0bffd17 	ldw	r2,-12(fp)
   80738:	10802103 	ldbu	r2,132(r2)
   8073c:	10803fcc 	andi	r2,r2,255
   80740:	e0fffa17 	ldw	r3,-24(fp)
   80744:	18bfcb16 	blt	r3,r2,80674 <__alt_data_end+0xfffb07b4>
                pRxCap->AUDDes[i].uc[1] = pCEAEDID[offset++] ;
                pRxCap->AUDDes[i].uc[2] = pCEAEDID[offset++] ;

            }

            break ;
   80748:	0000e606 	br	80ae4 <ParseCEAEDID+0x6ec>

        case 0x02: // Video Data Block ;
            //pRxCap->VDOModeCount = 0 ;
            offset ++ ;
   8074c:	e0bff903 	ldbu	r2,-28(fp)
   80750:	10800044 	addi	r2,r2,1
   80754:	e0bff905 	stb	r2,-28(fp)
            for( i = 0,pRxCap->idxNativeVDOMode = 0xff ; i < count ; i++, offset++ )
   80758:	e03ffa15 	stw	zero,-24(fp)
   8075c:	e0bffd17 	ldw	r2,-12(fp)
   80760:	00ffffc4 	movi	r3,-1
   80764:	10c000c5 	stb	r3,3(r2)
   80768:	00002b06 	br	80818 <ParseCEAEDID+0x420>
            {
            	BYTE VIC ;
            	VIC = pCEAEDID[offset] & (~0x80) ;
   8076c:	e0bff903 	ldbu	r2,-28(fp)
   80770:	e0fffc17 	ldw	r3,-16(fp)
   80774:	1885883a 	add	r2,r3,r2
   80778:	10800003 	ldbu	r2,0(r2)
   8077c:	10801fcc 	andi	r2,r2,127
   80780:	e0bffbc5 	stb	r2,-17(fp)
            	OS_PRINTF("HDMI Sink VIC(Video Identify Code)=%d\n", VIC);
   80784:	e0bffbc3 	ldbu	r2,-17(fp)
   80788:	100b883a 	mov	r5,r2
   8078c:	010002b4 	movhi	r4,10
   80790:	212e1a04 	addi	r4,r4,-18328
   80794:	008780c0 	call	8780c <OS_PRINTF>
            	// if( FindModeTableEntryByVIC(VIC) != -1 )
            	{
	                pRxCap->VDOMode[pRxCap->VDOModeCount] = VIC ;
   80798:	e0bffd17 	ldw	r2,-12(fp)
   8079c:	10800083 	ldbu	r2,2(r2)
   807a0:	10803fcc 	andi	r2,r2,255
   807a4:	e0fffd17 	ldw	r3,-12(fp)
   807a8:	1885883a 	add	r2,r3,r2
   807ac:	10800104 	addi	r2,r2,4
   807b0:	e0fffbc3 	ldbu	r3,-17(fp)
   807b4:	10c00005 	stb	r3,0(r2)
	                if( pCEAEDID[offset] & 0x80 )
   807b8:	e0bff903 	ldbu	r2,-28(fp)
   807bc:	e0fffc17 	ldw	r3,-16(fp)
   807c0:	1885883a 	add	r2,r3,r2
   807c4:	10800003 	ldbu	r2,0(r2)
   807c8:	10803fcc 	andi	r2,r2,255
   807cc:	1080201c 	xori	r2,r2,128
   807d0:	10bfe004 	addi	r2,r2,-128
   807d4:	1000040e 	bge	r2,zero,807e8 <ParseCEAEDID+0x3f0>
	                {
	                    pRxCap->idxNativeVDOMode = (BYTE)pRxCap->VDOModeCount ;
   807d8:	e0bffd17 	ldw	r2,-12(fp)
   807dc:	10c00083 	ldbu	r3,2(r2)
   807e0:	e0bffd17 	ldw	r2,-12(fp)
   807e4:	10c000c5 	stb	r3,3(r2)
	                    // iVideoModeSelect = pRxCap->VDOModeCount ;
	                }

	                pRxCap->VDOModeCount++ ;
   807e8:	e0bffd17 	ldw	r2,-12(fp)
   807ec:	10800083 	ldbu	r2,2(r2)
   807f0:	10800044 	addi	r2,r2,1
   807f4:	1007883a 	mov	r3,r2
   807f8:	e0bffd17 	ldw	r2,-12(fp)
   807fc:	10c00085 	stb	r3,2(r2)
            break ;

        case 0x02: // Video Data Block ;
            //pRxCap->VDOModeCount = 0 ;
            offset ++ ;
            for( i = 0,pRxCap->idxNativeVDOMode = 0xff ; i < count ; i++, offset++ )
   80800:	e0bffa17 	ldw	r2,-24(fp)
   80804:	10800044 	addi	r2,r2,1
   80808:	e0bffa15 	stw	r2,-24(fp)
   8080c:	e0bff903 	ldbu	r2,-28(fp)
   80810:	10800044 	addi	r2,r2,1
   80814:	e0bff905 	stb	r2,-28(fp)
   80818:	e0bffb83 	ldbu	r2,-18(fp)
   8081c:	e0fffa17 	ldw	r3,-24(fp)
   80820:	18bfd216 	blt	r3,r2,8076c <__alt_data_end+0xfffb08ac>
	                }

	                pRxCap->VDOModeCount++ ;
            	}
            }
            break ;
   80824:	0000af06 	br	80ae4 <ParseCEAEDID+0x6ec>
        case 0x03: // Vendor Specific Data Block ;
            offset ++ ;
   80828:	e0bff903 	ldbu	r2,-28(fp)
   8082c:	10800044 	addi	r2,r2,1
   80830:	e0bff905 	stb	r2,-28(fp)
            pRxCap->IEEEOUI = (ULONG)pCEAEDID[offset+2] ;
   80834:	e0bff903 	ldbu	r2,-28(fp)
   80838:	10800084 	addi	r2,r2,2
   8083c:	e0fffc17 	ldw	r3,-16(fp)
   80840:	1885883a 	add	r2,r3,r2
   80844:	10800003 	ldbu	r2,0(r2)
   80848:	10c03fcc 	andi	r3,r2,255
   8084c:	e0bffd17 	ldw	r2,-12(fp)
   80850:	10c03a15 	stw	r3,232(r2)
            pRxCap->IEEEOUI <<= 8 ;
   80854:	e0bffd17 	ldw	r2,-12(fp)
   80858:	10803a17 	ldw	r2,232(r2)
   8085c:	1006923a 	slli	r3,r2,8
   80860:	e0bffd17 	ldw	r2,-12(fp)
   80864:	10c03a15 	stw	r3,232(r2)
            pRxCap->IEEEOUI += (ULONG)pCEAEDID[offset+1] ;
   80868:	e0bffd17 	ldw	r2,-12(fp)
   8086c:	10c03a17 	ldw	r3,232(r2)
   80870:	e0bff903 	ldbu	r2,-28(fp)
   80874:	10800044 	addi	r2,r2,1
   80878:	e13ffc17 	ldw	r4,-16(fp)
   8087c:	2085883a 	add	r2,r4,r2
   80880:	10800003 	ldbu	r2,0(r2)
   80884:	10803fcc 	andi	r2,r2,255
   80888:	1887883a 	add	r3,r3,r2
   8088c:	e0bffd17 	ldw	r2,-12(fp)
   80890:	10c03a15 	stw	r3,232(r2)
            pRxCap->IEEEOUI <<= 8 ;
   80894:	e0bffd17 	ldw	r2,-12(fp)
   80898:	10803a17 	ldw	r2,232(r2)
   8089c:	1006923a 	slli	r3,r2,8
   808a0:	e0bffd17 	ldw	r2,-12(fp)
   808a4:	10c03a15 	stw	r3,232(r2)
            pRxCap->IEEEOUI += (ULONG)pCEAEDID[offset] ;
   808a8:	e0bffd17 	ldw	r2,-12(fp)
   808ac:	10c03a17 	ldw	r3,232(r2)
   808b0:	e0bff903 	ldbu	r2,-28(fp)
   808b4:	e13ffc17 	ldw	r4,-16(fp)
   808b8:	2085883a 	add	r2,r4,r2
   808bc:	10800003 	ldbu	r2,0(r2)
   808c0:	10803fcc 	andi	r2,r2,255
   808c4:	1887883a 	add	r3,r3,r2
   808c8:	e0bffd17 	ldw	r2,-12(fp)
   808cc:	10c03a15 	stw	r3,232(r2)

            ///////////////////////////////////////////////////////////
            // For HDMI 1.3 extension handling.
            ///////////////////////////////////////////////////////////
            
            pRxCap->dc.uc = 0 ;
   808d0:	e0bffd17 	ldw	r2,-12(fp)
   808d4:	10003b05 	stb	zero,236(r2)
            pRxCap->MaxTMDSClock = 0  ;
   808d8:	e0bffd17 	ldw	r2,-12(fp)
   808dc:	10003b45 	stb	zero,237(r2)
            pRxCap->lsupport.uc = 0 ;
   808e0:	e0bffd17 	ldw	r2,-12(fp)
   808e4:	10003b85 	stb	zero,238(r2)
            pRxCap->ValidHDMI = (pRxCap->IEEEOUI==HDMI_IEEEOUI)? TRUE:FALSE ;
   808e8:	e0bffd17 	ldw	r2,-12(fp)
   808ec:	10803a17 	ldw	r2,232(r2)
   808f0:	108300e0 	cmpeqi	r2,r2,3075
   808f4:	1007883a 	mov	r3,r2
   808f8:	e0bffd17 	ldw	r2,-12(fp)
   808fc:	18c0004c 	andi	r3,r3,1
   80900:	18cb883a 	add	r5,r3,r3
   80904:	11003d83 	ldbu	r4,246(r2)
   80908:	00ffff44 	movi	r3,-3
   8090c:	20c6703a 	and	r3,r4,r3
   80910:	1809883a 	mov	r4,r3
   80914:	2807883a 	mov	r3,r5
   80918:	20c6b03a 	or	r3,r4,r3
   8091c:	10c03d85 	stb	r3,246(r2)
            if( (pRxCap->ValidHDMI) && (count > 5 ))
   80920:	e0bffd17 	ldw	r2,-12(fp)
   80924:	10803d17 	ldw	r2,244(r2)
   80928:	108000ac 	andhi	r2,r2,2
   8092c:	10003c26 	beq	r2,zero,80a20 <ParseCEAEDID+0x628>
   80930:	e0bffb83 	ldbu	r2,-18(fp)
   80934:	108001b0 	cmpltui	r2,r2,6
   80938:	1000391e 	bne	r2,zero,80a20 <ParseCEAEDID+0x628>
            {
                // HDMI 1.3 extension
                pRxCap->dc.uc = pCEAEDID[offset+5] ;
   8093c:	e0bff903 	ldbu	r2,-28(fp)
   80940:	10800144 	addi	r2,r2,5
   80944:	e0fffc17 	ldw	r3,-16(fp)
   80948:	1885883a 	add	r2,r3,r2
   8094c:	10c00003 	ldbu	r3,0(r2)
   80950:	e0bffd17 	ldw	r2,-12(fp)
   80954:	10c03b05 	stb	r3,236(r2)
                pRxCap->MaxTMDSClock = pCEAEDID[offset+6] ;
   80958:	e0bff903 	ldbu	r2,-28(fp)
   8095c:	10800184 	addi	r2,r2,6
   80960:	e0fffc17 	ldw	r3,-16(fp)
   80964:	1885883a 	add	r2,r3,r2
   80968:	10c00003 	ldbu	r3,0(r2)
   8096c:	e0bffd17 	ldw	r2,-12(fp)
   80970:	10c03b45 	stb	r3,237(r2)
                pRxCap->lsupport.uc = pCEAEDID[offset+7] ;
   80974:	e0bff903 	ldbu	r2,-28(fp)
   80978:	108001c4 	addi	r2,r2,7
   8097c:	e0fffc17 	ldw	r3,-16(fp)
   80980:	1885883a 	add	r2,r3,r2
   80984:	10c00003 	ldbu	r3,0(r2)
   80988:	e0bffd17 	ldw	r2,-12(fp)
   8098c:	10c03b85 	stb	r3,238(r2)
                
                if(pRxCap->lsupport.info.Latency_Present)
   80990:	e0bffd17 	ldw	r2,-12(fp)
   80994:	10803b17 	ldw	r2,236(r2)
   80998:	1080202c 	andhi	r2,r2,128
   8099c:	10000e26 	beq	r2,zero,809d8 <ParseCEAEDID+0x5e0>
                {
                    pRxCap->V_Latency = pCEAEDID[offset+9] ;
   809a0:	e0bff903 	ldbu	r2,-28(fp)
   809a4:	10800244 	addi	r2,r2,9
   809a8:	e0fffc17 	ldw	r3,-16(fp)
   809ac:	1885883a 	add	r2,r3,r2
   809b0:	10c00003 	ldbu	r3,0(r2)
   809b4:	e0bffd17 	ldw	r2,-12(fp)
   809b8:	10c03bc5 	stb	r3,239(r2)
                    pRxCap->A_Latency = pCEAEDID[offset+10] ;
   809bc:	e0bff903 	ldbu	r2,-28(fp)
   809c0:	10800284 	addi	r2,r2,10
   809c4:	e0fffc17 	ldw	r3,-16(fp)
   809c8:	1885883a 	add	r2,r3,r2
   809cc:	10c00003 	ldbu	r3,0(r2)
   809d0:	e0bffd17 	ldw	r2,-12(fp)
   809d4:	10c03c05 	stb	r3,240(r2)
                }
                
                if(pRxCap->lsupport.info.I_Latency_Present)
   809d8:	e0bffd17 	ldw	r2,-12(fp)
   809dc:	10803b17 	ldw	r2,236(r2)
   809e0:	1080102c 	andhi	r2,r2,64
   809e4:	10000e26 	beq	r2,zero,80a20 <ParseCEAEDID+0x628>
                {
                    pRxCap->V_I_Latency = pCEAEDID[offset+11] ;
   809e8:	e0bff903 	ldbu	r2,-28(fp)
   809ec:	108002c4 	addi	r2,r2,11
   809f0:	e0fffc17 	ldw	r3,-16(fp)
   809f4:	1885883a 	add	r2,r3,r2
   809f8:	10c00003 	ldbu	r3,0(r2)
   809fc:	e0bffd17 	ldw	r2,-12(fp)
   80a00:	10c03c45 	stb	r3,241(r2)
                    pRxCap->A_I_Latency = pCEAEDID[offset+12] ;
   80a04:	e0bff903 	ldbu	r2,-28(fp)
   80a08:	10800304 	addi	r2,r2,12
   80a0c:	e0fffc17 	ldw	r3,-16(fp)
   80a10:	1885883a 	add	r2,r3,r2
   80a14:	10c00003 	ldbu	r3,0(r2)
   80a18:	e0bffd17 	ldw	r2,-12(fp)
   80a1c:	10c03c85 	stb	r3,242(r2)
                }
                
            }
            
            offset += count ; // ignore the remaind.
   80a20:	e0fff903 	ldbu	r3,-28(fp)
   80a24:	e0bffb83 	ldbu	r2,-18(fp)
   80a28:	1885883a 	add	r2,r3,r2
   80a2c:	e0bff905 	stb	r2,-28(fp)
            break ;
   80a30:	00002c06 	br	80ae4 <ParseCEAEDID+0x6ec>

        case 0x04: // Speaker Data Block ;
            offset ++ ;
   80a34:	e0bff903 	ldbu	r2,-28(fp)
   80a38:	10800044 	addi	r2,r2,1
   80a3c:	e0bff905 	stb	r2,-28(fp)
            pRxCap->SpeakerAllocBlk.uc[0] = pCEAEDID[offset] ;
   80a40:	e0bff903 	ldbu	r2,-28(fp)
   80a44:	e0fffc17 	ldw	r3,-16(fp)
   80a48:	1885883a 	add	r2,r3,r2
   80a4c:	10c00003 	ldbu	r3,0(r2)
   80a50:	e0bffd17 	ldw	r2,-12(fp)
   80a54:	10c03cc5 	stb	r3,243(r2)
            pRxCap->SpeakerAllocBlk.uc[1] = pCEAEDID[offset+1] ;
   80a58:	e0bff903 	ldbu	r2,-28(fp)
   80a5c:	10800044 	addi	r2,r2,1
   80a60:	e0fffc17 	ldw	r3,-16(fp)
   80a64:	1885883a 	add	r2,r3,r2
   80a68:	10c00003 	ldbu	r3,0(r2)
   80a6c:	e0bffd17 	ldw	r2,-12(fp)
   80a70:	10c03d05 	stb	r3,244(r2)
            pRxCap->SpeakerAllocBlk.uc[2] = pCEAEDID[offset+2] ;
   80a74:	e0bff903 	ldbu	r2,-28(fp)
   80a78:	10800084 	addi	r2,r2,2
   80a7c:	e0fffc17 	ldw	r3,-16(fp)
   80a80:	1885883a 	add	r2,r3,r2
   80a84:	10c00003 	ldbu	r3,0(r2)
   80a88:	e0bffd17 	ldw	r2,-12(fp)
   80a8c:	10c03d45 	stb	r3,245(r2)
            offset += 3 ;
   80a90:	e0bff903 	ldbu	r2,-28(fp)
   80a94:	108000c4 	addi	r2,r2,3
   80a98:	e0bff905 	stb	r2,-28(fp)
            break ;
   80a9c:	00001106 	br	80ae4 <ParseCEAEDID+0x6ec>
        case 0x05: // VESA Data Block ;
            offset += count+1 ;
   80aa0:	e0fffb83 	ldbu	r3,-18(fp)
   80aa4:	e0bff903 	ldbu	r2,-28(fp)
   80aa8:	1885883a 	add	r2,r3,r2
   80aac:	10800044 	addi	r2,r2,1
   80ab0:	e0bff905 	stb	r2,-28(fp)
            break ;
   80ab4:	00000b06 	br	80ae4 <ParseCEAEDID+0x6ec>
        case 0x07: // Extended Data Block ;
            offset += count+1 ; //ignore
   80ab8:	e0fffb83 	ldbu	r3,-18(fp)
   80abc:	e0bff903 	ldbu	r2,-28(fp)
   80ac0:	1885883a 	add	r2,r3,r2
   80ac4:	10800044 	addi	r2,r2,1
   80ac8:	e0bff905 	stb	r2,-28(fp)
            break ;
   80acc:	00000506 	br	80ae4 <ParseCEAEDID+0x6ec>
        default:
            offset += count+1 ; // ignore
   80ad0:	e0fffb83 	ldbu	r3,-18(fp)
   80ad4:	e0bff903 	ldbu	r2,-28(fp)
   80ad8:	1885883a 	add	r2,r3,r2
   80adc:	10800044 	addi	r2,r2,1
   80ae0:	e0bff905 	stb	r2,-28(fp)
        }
    }
    
	pRxCap->VDOModeCount = 0 ;
    pRxCap->idxNativeVDOMode = 0xff ;
    for( offset = 4 ; offset < End ; )
   80ae4:	e0fff903 	ldbu	r3,-28(fp)
   80ae8:	e0bffb03 	ldbu	r2,-20(fp)
   80aec:	18beb336 	bltu	r3,r2,805bc <__alt_data_end+0xfffb06fc>
        default:
            offset += count+1 ; // ignore
        }
    }

    pRxCap->ValidCEA = TRUE ;
   80af0:	e0bffd17 	ldw	r2,-12(fp)
   80af4:	10c03d83 	ldbu	r3,246(r2)
   80af8:	18c00054 	ori	r3,r3,1
   80afc:	10c03d85 	stb	r3,246(r2)
    return ER_SUCCESS ;
   80b00:	0005883a 	mov	r2,zero
}
   80b04:	e6fffe04 	addi	sp,fp,-8
   80b08:	dfc00317 	ldw	ra,12(sp)
   80b0c:	df000217 	ldw	fp,8(sp)
   80b10:	dc400117 	ldw	r17,4(sp)
   80b14:	dc000017 	ldw	r16,0(sp)
   80b18:	dec00404 	addi	sp,sp,16
   80b1c:	f800283a 	ret

00080b20 <HDMITX_ChipVerify>:
        TRUE,// bHDMIMode
        FALSE,// bIntPOL
        FALSE // bHPD
} ;

bool HDMITX_ChipVerify(void){
   80b20:	defffa04 	addi	sp,sp,-24
   80b24:	dfc00515 	stw	ra,20(sp)
   80b28:	df000415 	stw	fp,16(sp)
   80b2c:	df000404 	addi	fp,sp,16
    bool bPass = FALSE;
   80b30:	e03ffd15 	stw	zero,-12(fp)
    alt_u8 szID[4];
    int i;
    
    
    for(i=0;i<4;i++)
   80b34:	e03ffe15 	stw	zero,-8(fp)
   80b38:	00000c06 	br	80b6c <HDMITX_ChipVerify+0x4c>
        szID[i] = HDMITX_ReadI2C_Byte(i);
   80b3c:	e0bffe17 	ldw	r2,-8(fp)
   80b40:	10803fcc 	andi	r2,r2,255
   80b44:	1009883a 	mov	r4,r2
   80b48:	0087a640 	call	87a64 <HDMITX_ReadI2C_Byte>
   80b4c:	1009883a 	mov	r4,r2
   80b50:	e0ffff04 	addi	r3,fp,-4
   80b54:	e0bffe17 	ldw	r2,-8(fp)
   80b58:	1885883a 	add	r2,r3,r2
   80b5c:	11000005 	stb	r4,0(r2)
    bool bPass = FALSE;
    alt_u8 szID[4];
    int i;
    
    
    for(i=0;i<4;i++)
   80b60:	e0bffe17 	ldw	r2,-8(fp)
   80b64:	10800044 	addi	r2,r2,1
   80b68:	e0bffe15 	stw	r2,-8(fp)
   80b6c:	e0bffe17 	ldw	r2,-8(fp)
   80b70:	10800110 	cmplti	r2,r2,4
   80b74:	103ff11e 	bne	r2,zero,80b3c <__alt_data_end+0xfffb0c7c>
        szID[i] = HDMITX_ReadI2C_Byte(i);
        
//    if (szID[0] == 0x00 && szID[1] == 0xCA && szID[1] == 0x13 && szID[1] == 0x06) szID[0] ???
    if ((szID[1] == 0xCA && szID[2] == 0x13 && szID[3] == 0x06) || (szID[1] == 0xCA && szID[2] == 0x13 && szID[3] == 0x16)){
   80b78:	e0bfff43 	ldbu	r2,-3(fp)
   80b7c:	10803fcc 	andi	r2,r2,255
   80b80:	10803298 	cmpnei	r2,r2,202
   80b84:	1000081e 	bne	r2,zero,80ba8 <HDMITX_ChipVerify+0x88>
   80b88:	e0bfff83 	ldbu	r2,-2(fp)
   80b8c:	10803fcc 	andi	r2,r2,255
   80b90:	108004d8 	cmpnei	r2,r2,19
   80b94:	1000041e 	bne	r2,zero,80ba8 <HDMITX_ChipVerify+0x88>
   80b98:	e0bfffc3 	ldbu	r2,-1(fp)
   80b9c:	10803fcc 	andi	r2,r2,255
   80ba0:	108001a0 	cmpeqi	r2,r2,6
   80ba4:	10000c1e 	bne	r2,zero,80bd8 <HDMITX_ChipVerify+0xb8>
   80ba8:	e0bfff43 	ldbu	r2,-3(fp)
   80bac:	10803fcc 	andi	r2,r2,255
   80bb0:	10803298 	cmpnei	r2,r2,202
   80bb4:	1000111e 	bne	r2,zero,80bfc <HDMITX_ChipVerify+0xdc>
   80bb8:	e0bfff83 	ldbu	r2,-2(fp)
   80bbc:	10803fcc 	andi	r2,r2,255
   80bc0:	108004d8 	cmpnei	r2,r2,19
   80bc4:	10000d1e 	bne	r2,zero,80bfc <HDMITX_ChipVerify+0xdc>
   80bc8:	e0bfffc3 	ldbu	r2,-1(fp)
   80bcc:	10803fcc 	andi	r2,r2,255
   80bd0:	10800598 	cmpnei	r2,r2,22
   80bd4:	1000091e 	bne	r2,zero,80bfc <HDMITX_ChipVerify+0xdc>
        bPass = TRUE;
   80bd8:	00800044 	movi	r2,1
   80bdc:	e0bffd15 	stw	r2,-12(fp)
        printf("TX Chip Revision ID: %d\n", szID[0]);     
   80be0:	e0bfff03 	ldbu	r2,-4(fp)
   80be4:	10803fcc 	andi	r2,r2,255
   80be8:	100b883a 	mov	r5,r2
   80bec:	010002b4 	movhi	r4,10
   80bf0:	212e2404 	addi	r4,r4,-18288
   80bf4:	0088fc00 	call	88fc0 <printf>
   80bf8:	00000f06 	br	80c38 <HDMITX_ChipVerify+0x118>
    }else{
        printf("NG, Read TX Chip ID:%02X%02X%02X%02Xh (expected:00CA1306h)\n", szID[0], szID[1], szID[2], szID[3]);     
   80bfc:	e0bfff03 	ldbu	r2,-4(fp)
   80c00:	10c03fcc 	andi	r3,r2,255
   80c04:	e0bfff43 	ldbu	r2,-3(fp)
   80c08:	11003fcc 	andi	r4,r2,255
   80c0c:	e0bfff83 	ldbu	r2,-2(fp)
   80c10:	11403fcc 	andi	r5,r2,255
   80c14:	e0bfffc3 	ldbu	r2,-1(fp)
   80c18:	10803fcc 	andi	r2,r2,255
   80c1c:	d8800015 	stw	r2,0(sp)
   80c20:	280f883a 	mov	r7,r5
   80c24:	200d883a 	mov	r6,r4
   80c28:	180b883a 	mov	r5,r3
   80c2c:	010002b4 	movhi	r4,10
   80c30:	212e2b04 	addi	r4,r4,-18260
   80c34:	0088fc00 	call	88fc0 <printf>
    }
                    
    return bPass;
   80c38:	e0bffd17 	ldw	r2,-12(fp)
}
   80c3c:	e037883a 	mov	sp,fp
   80c40:	dfc00117 	ldw	ra,4(sp)
   80c44:	df000017 	ldw	fp,0(sp)
   80c48:	dec00204 	addi	sp,sp,8
   80c4c:	f800283a 	ret

00080c50 <HDMITX_Init>:

bool HDMITX_Init(void){
   80c50:	defffd04 	addi	sp,sp,-12
   80c54:	dfc00215 	stw	ra,8(sp)
   80c58:	df000115 	stw	fp,4(sp)
   80c5c:	df000104 	addi	fp,sp,4
    bool bSuccess = TRUE;
   80c60:	00800044 	movi	r2,1
   80c64:	e0bfff15 	stw	r2,-4(fp)
    HDMITX_Reset();
   80c68:	00878bc0 	call	878bc <HDMITX_Reset>
    usleep(500*1000);
   80c6c:	01000234 	movhi	r4,8
   80c70:	21284804 	addi	r4,r4,-24288
   80c74:	00998c00 	call	998c0 <usleep>
    if (!HDMITX_ChipVerify()){
   80c78:	0080b200 	call	80b20 <HDMITX_ChipVerify>
   80c7c:	1000041e 	bne	r2,zero,80c90 <HDMITX_Init+0x40>
        OS_PRINTF("Failed to find IT6613 HDMI-TX Chip.\n");
   80c80:	010002b4 	movhi	r4,10
   80c84:	212e3a04 	addi	r4,r4,-18200
   80c88:	008780c0 	call	8780c <OS_PRINTF>
        bSuccess = FALSE;
   80c8c:	e03fff15 	stw	zero,-4(fp)
        //return 0;
    }    

    HDMITX_InitInstance(&InitInstanceData) ;
   80c90:	010002b4 	movhi	r4,10
   80c94:	2131ec04 	addi	r4,r4,-14416
   80c98:	00814300 	call	81430 <HDMITX_InitInstance>
    InitIT6613() ;
   80c9c:	00815840 	call	81584 <InitIT6613>
    
    
    return bSuccess;  
   80ca0:	e0bfff17 	ldw	r2,-4(fp)
}        
   80ca4:	e037883a 	mov	sp,fp
   80ca8:	dfc00117 	ldw	ra,4(sp)
   80cac:	df000017 	ldw	fp,0(sp)
   80cb0:	dec00204 	addi	sp,sp,8
   80cb4:	f800283a 	ret

00080cb8 <HDMITX_HPD>:

bool HDMITX_HPD(void){
   80cb8:	deffff04 	addi	sp,sp,-4
   80cbc:	df000015 	stw	fp,0(sp)
   80cc0:	d839883a 	mov	fp,sp
    if (TX_HDP)
   80cc4:	d0a99317 	ldw	r2,-22964(gp)
   80cc8:	10000226 	beq	r2,zero,80cd4 <HDMITX_HPD+0x1c>
        return TRUE;
   80ccc:	00800044 	movi	r2,1
   80cd0:	00000106 	br	80cd8 <HDMITX_HPD+0x20>
    return FALSE;        
   80cd4:	0005883a 	mov	r2,zero
}
   80cd8:	e037883a 	mov	sp,fp
   80cdc:	df000017 	ldw	fp,0(sp)
   80ce0:	dec00104 	addi	sp,sp,4
   80ce4:	f800283a 	ret

00080ce8 <HDMITX_SetAVIInfoFrame>:


void HDMITX_SetAVIInfoFrame(alt_u8 VIC, alt_u8 OutputColorMode, bool b16x9, bool ITU709)
{
   80ce8:	defff404 	addi	sp,sp,-48
   80cec:	dfc00b15 	stw	ra,44(sp)
   80cf0:	df000a15 	stw	fp,40(sp)
   80cf4:	df000a04 	addi	fp,sp,40
   80cf8:	2007883a 	mov	r3,r4
   80cfc:	2805883a 	mov	r2,r5
   80d00:	e1bffe15 	stw	r6,-8(fp)
   80d04:	e1ffff15 	stw	r7,-4(fp)
   80d08:	e0fffc05 	stb	r3,-16(fp)
   80d0c:	e0bffd05 	stb	r2,-12(fp)
     AVI_InfoFrame AviInfo;
    alt_u8 pixelrep = 0;
   80d10:	e03ff705 	stb	zero,-36(fp)
    
    OS_PRINTF("HDMITX_SetAVIInfoFrame, VIC=%d, ColorMode=%d, Aspect-Ratio=%s, ITU709=%s\n",
   80d14:	e13ffc03 	ldbu	r4,-16(fp)
   80d18:	e17ffd03 	ldbu	r5,-12(fp)
   80d1c:	e0bffe17 	ldw	r2,-8(fp)
   80d20:	10000326 	beq	r2,zero,80d30 <HDMITX_SetAVIInfoFrame+0x48>
   80d24:	00c002b4 	movhi	r3,10
   80d28:	18ee4404 	addi	r3,r3,-18160
   80d2c:	00000206 	br	80d38 <HDMITX_SetAVIInfoFrame+0x50>
   80d30:	00c002b4 	movhi	r3,10
   80d34:	18ee4604 	addi	r3,r3,-18152
   80d38:	e0bfff17 	ldw	r2,-4(fp)
   80d3c:	10000326 	beq	r2,zero,80d4c <HDMITX_SetAVIInfoFrame+0x64>
   80d40:	008002b4 	movhi	r2,10
   80d44:	10ae4704 	addi	r2,r2,-18148
   80d48:	00000206 	br	80d54 <HDMITX_SetAVIInfoFrame+0x6c>
   80d4c:	008002b4 	movhi	r2,10
   80d50:	10ae4804 	addi	r2,r2,-18144
   80d54:	d8800015 	stw	r2,0(sp)
   80d58:	180f883a 	mov	r7,r3
   80d5c:	280d883a 	mov	r6,r5
   80d60:	200b883a 	mov	r5,r4
   80d64:	010002b4 	movhi	r4,10
   80d68:	212e4904 	addi	r4,r4,-18140
   80d6c:	008780c0 	call	8780c <OS_PRINTF>
        VIC, OutputColorMode, b16x9?"16:9":"4:3", ITU709?"Yes":"No");

    AviInfo.pktbyte.AVI_HB[0] = AVI_INFOFRAME_TYPE|0x80 ; 
   80d70:	00bfe084 	movi	r2,-126
   80d74:	e0bff785 	stb	r2,-34(fp)
    AviInfo.pktbyte.AVI_HB[1] = AVI_INFOFRAME_VER ; 
   80d78:	00800084 	movi	r2,2
   80d7c:	e0bff7c5 	stb	r2,-33(fp)
    AviInfo.pktbyte.AVI_HB[2] = AVI_INFOFRAME_LEN ; 
   80d80:	00800344 	movi	r2,13
   80d84:	e0bff805 	stb	r2,-32(fp)
    
    switch(OutputColorMode)
   80d88:	e0bffd03 	ldbu	r2,-12(fp)
   80d8c:	10c00060 	cmpeqi	r3,r2,1
   80d90:	1800051e 	bne	r3,zero,80da8 <HDMITX_SetAVIInfoFrame+0xc0>
   80d94:	108000a0 	cmpeqi	r2,r2,2
   80d98:	10000626 	beq	r2,zero,80db4 <HDMITX_SetAVIInfoFrame+0xcc>
    {
    case F_MODE_YUV444:
        // AviInfo.info.ColorMode = 2 ;
        AviInfo.pktbyte.AVI_DB[0] = (2<<5)|(1<<4) ;
   80d9c:	00801404 	movi	r2,80
   80da0:	e0bff845 	stb	r2,-31(fp)
        break ;
   80da4:	00000606 	br	80dc0 <HDMITX_SetAVIInfoFrame+0xd8>
    case F_MODE_YUV422:
        // AviInfo.info.ColorMode = 1 ;
        AviInfo.pktbyte.AVI_DB[0] = (1<<5)|(1<<4) ;
   80da8:	00800c04 	movi	r2,48
   80dac:	e0bff845 	stb	r2,-31(fp)
        break ;
   80db0:	00000306 	br	80dc0 <HDMITX_SetAVIInfoFrame+0xd8>
    case F_MODE_RGB444:
    default:
        // AviInfo.info.ColorMode = 0 ;
        AviInfo.pktbyte.AVI_DB[0] = (0<<5)|(1<<4) ;
   80db4:	00800404 	movi	r2,16
   80db8:	e0bff845 	stb	r2,-31(fp)
        break ;
   80dbc:	0001883a 	nop
    }
    AviInfo.pktbyte.AVI_DB[1] = 8 ;
   80dc0:	00800204 	movi	r2,8
   80dc4:	e0bff885 	stb	r2,-30(fp)
    AviInfo.pktbyte.AVI_DB[1] |= (!b16x9)?(1<<4):(2<<4) ; // 4:3 or 16:9
   80dc8:	e0bff883 	ldbu	r2,-30(fp)
   80dcc:	1007883a 	mov	r3,r2
   80dd0:	e0bffe17 	ldw	r2,-8(fp)
   80dd4:	1000021e 	bne	r2,zero,80de0 <HDMITX_SetAVIInfoFrame+0xf8>
   80dd8:	00800404 	movi	r2,16
   80ddc:	00000106 	br	80de4 <HDMITX_SetAVIInfoFrame+0xfc>
   80de0:	00800804 	movi	r2,32
   80de4:	1884b03a 	or	r2,r3,r2
   80de8:	e0bff885 	stb	r2,-30(fp)
    AviInfo.pktbyte.AVI_DB[1] |= (!ITU709)?(1<<6):(2<<6) ; // 4:3 or 16:9
   80dec:	e0bff883 	ldbu	r2,-30(fp)
   80df0:	1007883a 	mov	r3,r2
   80df4:	e0bfff17 	ldw	r2,-4(fp)
   80df8:	1000021e 	bne	r2,zero,80e04 <HDMITX_SetAVIInfoFrame+0x11c>
   80dfc:	00801004 	movi	r2,64
   80e00:	00000106 	br	80e08 <HDMITX_SetAVIInfoFrame+0x120>
   80e04:	00bfe004 	movi	r2,-128
   80e08:	1884b03a 	or	r2,r3,r2
   80e0c:	e0bff885 	stb	r2,-30(fp)
    AviInfo.pktbyte.AVI_DB[2] = 0 ;
   80e10:	e03ff8c5 	stb	zero,-29(fp)
    AviInfo.pktbyte.AVI_DB[3] = VIC ;
   80e14:	e0bffc03 	ldbu	r2,-16(fp)
   80e18:	e0bff905 	stb	r2,-28(fp)
    AviInfo.pktbyte.AVI_DB[4] =  pixelrep & 3 ;
   80e1c:	e0bff703 	ldbu	r2,-36(fp)
   80e20:	108000cc 	andi	r2,r2,3
   80e24:	e0bff945 	stb	r2,-27(fp)
    AviInfo.pktbyte.AVI_DB[5] = 0 ;
   80e28:	e03ff985 	stb	zero,-26(fp)
    AviInfo.pktbyte.AVI_DB[6] = 0 ;
   80e2c:	e03ff9c5 	stb	zero,-25(fp)
    AviInfo.pktbyte.AVI_DB[7] = 0 ;
   80e30:	e03ffa05 	stb	zero,-24(fp)
    AviInfo.pktbyte.AVI_DB[8] = 0 ;
   80e34:	e03ffa45 	stb	zero,-23(fp)
    AviInfo.pktbyte.AVI_DB[9] = 0 ;
   80e38:	e03ffa85 	stb	zero,-22(fp)
    AviInfo.pktbyte.AVI_DB[10] = 0 ;
   80e3c:	e03ffac5 	stb	zero,-21(fp)
    AviInfo.pktbyte.AVI_DB[11] = 0 ;
   80e40:	e03ffb05 	stb	zero,-20(fp)
    AviInfo.pktbyte.AVI_DB[12] = 0 ;
   80e44:	e03ffb45 	stb	zero,-19(fp)

    EnableAVIInfoFrame(TRUE, (unsigned char *)&AviInfo) ;
   80e48:	e0bff784 	addi	r2,fp,-34
   80e4c:	100b883a 	mov	r5,r2
   80e50:	01000044 	movi	r4,1
   80e54:	0081f280 	call	81f28 <EnableAVIInfoFrame>
}
   80e58:	0001883a 	nop
   80e5c:	e037883a 	mov	sp,fp
   80e60:	dfc00117 	ldw	ra,4(sp)
   80e64:	df000017 	ldw	fp,0(sp)
   80e68:	dec00204 	addi	sp,sp,8
   80e6c:	f800283a 	ret

00080e70 <HDMITX_ChangeVideoTiming>:

void HDMITX_ChangeVideoTiming(int VIC){
   80e70:	defffb04 	addi	sp,sp,-20
   80e74:	dfc00415 	stw	ra,16(sp)
   80e78:	df000315 	stw	fp,12(sp)
   80e7c:	df000304 	addi	fp,sp,12
   80e80:	e13fff15 	stw	r4,-4(fp)
    int OutputVideoTiming = VIC;
   80e84:	e0bfff17 	ldw	r2,-4(fp)
   80e88:	e0bffe15 	stw	r2,-8(fp)
    int HdmiColorMode;
    
    switch(bOutputColorMode)
   80e8c:	d0a998c3 	ldbu	r2,-22941(gp)
   80e90:	10803fcc 	andi	r2,r2,255
   80e94:	10c00060 	cmpeqi	r3,r2,1
   80e98:	1800051e 	bne	r3,zero,80eb0 <HDMITX_ChangeVideoTiming+0x40>
   80e9c:	108000a0 	cmpeqi	r2,r2,2
   80ea0:	10000626 	beq	r2,zero,80ebc <HDMITX_ChangeVideoTiming+0x4c>
    {
    case F_MODE_YUV444:
        HdmiColorMode =  HDMI_YUV444;
   80ea4:	00800044 	movi	r2,1
   80ea8:	e0bffd15 	stw	r2,-12(fp)
        break ;
   80eac:	00000506 	br	80ec4 <HDMITX_ChangeVideoTiming+0x54>
    case F_MODE_YUV422:
        HdmiColorMode =  HDMI_YUV422;
   80eb0:	00800084 	movi	r2,2
   80eb4:	e0bffd15 	stw	r2,-12(fp)
        break ;
   80eb8:	00000206 	br	80ec4 <HDMITX_ChangeVideoTiming+0x54>
    case F_MODE_RGB444:
    default:
        HdmiColorMode =  HDMI_RGB444;
   80ebc:	e03ffd15 	stw	zero,-12(fp)
        break ;
   80ec0:	0001883a 	nop
    }    
    
    HDMITX_ChangeDisplayOption(OutputVideoTiming, HdmiColorMode); // just modify variable. Take effect when HDMITX_SetOutput is called in HDMITX_DevLoopProc   
   80ec4:	e0bffe17 	ldw	r2,-8(fp)
   80ec8:	e0fffd17 	ldw	r3,-12(fp)
   80ecc:	180b883a 	mov	r5,r3
   80ed0:	1009883a 	mov	r4,r2
   80ed4:	0086cb80 	call	86cb8 <HDMITX_ChangeDisplayOption>
}
   80ed8:	0001883a 	nop
   80edc:	e037883a 	mov	sp,fp
   80ee0:	dfc00117 	ldw	ra,4(sp)
   80ee4:	df000017 	ldw	fp,0(sp)
   80ee8:	dec00204 	addi	sp,sp,8
   80eec:	f800283a 	ret

00080ef0 <HDMITX_ChangeVideoTimingAndColor>:

void HDMITX_ChangeVideoTimingAndColor(int VIC, COLOR_TYPE Color){
   80ef0:	defffa04 	addi	sp,sp,-24
   80ef4:	dfc00515 	stw	ra,20(sp)
   80ef8:	df000415 	stw	fp,16(sp)
   80efc:	df000404 	addi	fp,sp,16
   80f00:	e13ffe15 	stw	r4,-8(fp)
   80f04:	e17fff15 	stw	r5,-4(fp)
    int OutputVideoTiming = VIC;
   80f08:	e0bffe17 	ldw	r2,-8(fp)
   80f0c:	e0bffd15 	stw	r2,-12(fp)
    int HdmiColorMode;
    
    switch(Color)
   80f10:	e0bfff17 	ldw	r2,-4(fp)
   80f14:	10c00060 	cmpeqi	r3,r2,1
   80f18:	1800051e 	bne	r3,zero,80f30 <HDMITX_ChangeVideoTimingAndColor+0x40>
   80f1c:	108000a0 	cmpeqi	r2,r2,2
   80f20:	10000626 	beq	r2,zero,80f3c <HDMITX_ChangeVideoTimingAndColor+0x4c>
    {
    case COLOR_YUV444:
        HdmiColorMode =  HDMI_YUV444;
   80f24:	00800044 	movi	r2,1
   80f28:	e0bffc15 	stw	r2,-16(fp)
        break ;
   80f2c:	00000506 	br	80f44 <HDMITX_ChangeVideoTimingAndColor+0x54>
    case COLOR_YUV422:
        HdmiColorMode =  HDMI_YUV422;
   80f30:	00800084 	movi	r2,2
   80f34:	e0bffc15 	stw	r2,-16(fp)
        break ;
   80f38:	00000206 	br	80f44 <HDMITX_ChangeVideoTimingAndColor+0x54>
    case COLOR_RGB444:
    default:
        HdmiColorMode =  HDMI_RGB444;
   80f3c:	e03ffc15 	stw	zero,-16(fp)
        break ;
   80f40:	0001883a 	nop
    }     
    HDMITX_ChangeDisplayOption(OutputVideoTiming, HdmiColorMode);    
   80f44:	e0bffd17 	ldw	r2,-12(fp)
   80f48:	e0fffc17 	ldw	r3,-16(fp)
   80f4c:	180b883a 	mov	r5,r3
   80f50:	1009883a 	mov	r4,r2
   80f54:	0086cb80 	call	86cb8 <HDMITX_ChangeDisplayOption>
}
   80f58:	0001883a 	nop
   80f5c:	e037883a 	mov	sp,fp
   80f60:	dfc00117 	ldw	ra,4(sp)
   80f64:	df000017 	ldw	fp,0(sp)
   80f68:	dec00204 	addi	sp,sp,8
   80f6c:	f800283a 	ret

00080f70 <HDMITX_DisableVideoOutput>:

void HDMITX_DisableVideoOutput(void){
   80f70:	defffe04 	addi	sp,sp,-8
   80f74:	dfc00115 	stw	ra,4(sp)
   80f78:	df000015 	stw	fp,0(sp)
   80f7c:	d839883a 	mov	fp,sp
    DisableVideoOutput();        
   80f80:	0081e8c0 	call	81e8c <DisableVideoOutput>
}
   80f84:	0001883a 	nop
   80f88:	e037883a 	mov	sp,fp
   80f8c:	dfc00117 	ldw	ra,4(sp)
   80f90:	df000017 	ldw	fp,0(sp)
   80f94:	dec00204 	addi	sp,sp,8
   80f98:	f800283a 	ret

00080f9c <HDMITX_EnableVideoOutput>:

void HDMITX_EnableVideoOutput(void){
   80f9c:	defffe04 	addi	sp,sp,-8
   80fa0:	dfc00115 	stw	ra,4(sp)
   80fa4:	df000015 	stw	fp,0(sp)
   80fa8:	d839883a 	mov	fp,sp
    HDMITX_SetOutput();
   80fac:	0086b8c0 	call	86b8c <HDMITX_SetOutput>
}
   80fb0:	0001883a 	nop
   80fb4:	e037883a 	mov	sp,fp
   80fb8:	dfc00117 	ldw	ra,4(sp)
   80fbc:	df000017 	ldw	fp,0(sp)
   80fc0:	dec00204 	addi	sp,sp,8
   80fc4:	f800283a 	ret

00080fc8 <HDMITX_SetColorSpace>:

void HDMITX_SetColorSpace(COLOR_TYPE InputColor, COLOR_TYPE OutputColor){
   80fc8:	defffd04 	addi	sp,sp,-12
   80fcc:	df000215 	stw	fp,8(sp)
   80fd0:	df000204 	addi	fp,sp,8
   80fd4:	e13ffe15 	stw	r4,-8(fp)
   80fd8:	e17fff15 	stw	r5,-4(fp)
   // DisableVideoOutput();
    bInputColorMode = InputColor;
   80fdc:	e0bffe17 	ldw	r2,-8(fp)
   80fe0:	d0a99805 	stb	r2,-22944(gp)
    bOutputColorMode = OutputColor;
   80fe4:	e0bfff17 	ldw	r2,-4(fp)
   80fe8:	d0a998c5 	stb	r2,-22941(gp)
   // HDMITX_SetOutput();
}
   80fec:	0001883a 	nop
   80ff0:	e037883a 	mov	sp,fp
   80ff4:	df000017 	ldw	fp,0(sp)
   80ff8:	dec00104 	addi	sp,sp,4
   80ffc:	f800283a 	ret

00081000 <HDMITX_IsSinkSupportYUV444>:

bool HDMITX_IsSinkSupportYUV444(void){
   81000:	defffe04 	addi	sp,sp,-8
   81004:	df000115 	stw	fp,4(sp)
   81008:	df000104 	addi	fp,sp,4
    bool bSupport = FALSE;
   8100c:	e03fff15 	stw	zero,-4(fp)
    if (RxCapability.Valid && RxCapability.ValidHDMI && RxCapability.ValidCEA && 
   81010:	008002b4 	movhi	r2,10
   81014:	1085b304 	addi	r2,r2,5836
   81018:	10800003 	ldbu	r2,0(r2)
   8101c:	10803fcc 	andi	r2,r2,255
   81020:	10001226 	beq	r2,zero,8106c <HDMITX_IsSinkSupportYUV444+0x6c>
   81024:	008002b4 	movhi	r2,10
   81028:	1085b304 	addi	r2,r2,5836
   8102c:	10803d17 	ldw	r2,244(r2)
   81030:	108000ac 	andhi	r2,r2,2
   81034:	10000d26 	beq	r2,zero,8106c <HDMITX_IsSinkSupportYUV444+0x6c>
   81038:	008002b4 	movhi	r2,10
   8103c:	1085b304 	addi	r2,r2,5836
   81040:	10803d17 	ldw	r2,244(r2)
   81044:	1080006c 	andhi	r2,r2,1
   81048:	10000826 	beq	r2,zero,8106c <HDMITX_IsSinkSupportYUV444+0x6c>
       (RxCapability.VideoMode & CEA_SUPPORT_YUV444))
   8104c:	008002b4 	movhi	r2,10
   81050:	1085b304 	addi	r2,r2,5836
   81054:	10800043 	ldbu	r2,1(r2)
   81058:	10803fcc 	andi	r2,r2,255
   8105c:	1080080c 	andi	r2,r2,32
   // HDMITX_SetOutput();
}

bool HDMITX_IsSinkSupportYUV444(void){
    bool bSupport = FALSE;
    if (RxCapability.Valid && RxCapability.ValidHDMI && RxCapability.ValidCEA && 
   81060:	10000226 	beq	r2,zero,8106c <HDMITX_IsSinkSupportYUV444+0x6c>
       (RxCapability.VideoMode & CEA_SUPPORT_YUV444))
        bSupport = TRUE;
   81064:	00800044 	movi	r2,1
   81068:	e0bfff15 	stw	r2,-4(fp)
    return bSupport;
   8106c:	e0bfff17 	ldw	r2,-4(fp)
}
   81070:	e037883a 	mov	sp,fp
   81074:	df000017 	ldw	fp,0(sp)
   81078:	dec00104 	addi	sp,sp,4
   8107c:	f800283a 	ret

00081080 <HDMITX_IsSinkSupportYUV422>:

bool HDMITX_IsSinkSupportYUV422(void){
   81080:	defffe04 	addi	sp,sp,-8
   81084:	df000115 	stw	fp,4(sp)
   81088:	df000104 	addi	fp,sp,4
    bool bSupport = FALSE;
   8108c:	e03fff15 	stw	zero,-4(fp)
    if (RxCapability.Valid && RxCapability.ValidHDMI && RxCapability.ValidCEA && 
   81090:	008002b4 	movhi	r2,10
   81094:	1085b304 	addi	r2,r2,5836
   81098:	10800003 	ldbu	r2,0(r2)
   8109c:	10803fcc 	andi	r2,r2,255
   810a0:	10001226 	beq	r2,zero,810ec <HDMITX_IsSinkSupportYUV422+0x6c>
   810a4:	008002b4 	movhi	r2,10
   810a8:	1085b304 	addi	r2,r2,5836
   810ac:	10803d17 	ldw	r2,244(r2)
   810b0:	108000ac 	andhi	r2,r2,2
   810b4:	10000d26 	beq	r2,zero,810ec <HDMITX_IsSinkSupportYUV422+0x6c>
   810b8:	008002b4 	movhi	r2,10
   810bc:	1085b304 	addi	r2,r2,5836
   810c0:	10803d17 	ldw	r2,244(r2)
   810c4:	1080006c 	andhi	r2,r2,1
   810c8:	10000826 	beq	r2,zero,810ec <HDMITX_IsSinkSupportYUV422+0x6c>
       (RxCapability.VideoMode & CEA_SUPPORT_YUV422))
   810cc:	008002b4 	movhi	r2,10
   810d0:	1085b304 	addi	r2,r2,5836
   810d4:	10800043 	ldbu	r2,1(r2)
   810d8:	10803fcc 	andi	r2,r2,255
   810dc:	1080040c 	andi	r2,r2,16
    return bSupport;
}

bool HDMITX_IsSinkSupportYUV422(void){
    bool bSupport = FALSE;
    if (RxCapability.Valid && RxCapability.ValidHDMI && RxCapability.ValidCEA && 
   810e0:	10000226 	beq	r2,zero,810ec <HDMITX_IsSinkSupportYUV422+0x6c>
       (RxCapability.VideoMode & CEA_SUPPORT_YUV422))
        bSupport = TRUE;
   810e4:	00800044 	movi	r2,1
   810e8:	e0bfff15 	stw	r2,-4(fp)
    return bSupport;
   810ec:	e0bfff17 	ldw	r2,-4(fp)
}
   810f0:	e037883a 	mov	sp,fp
   810f4:	df000017 	ldw	fp,0(sp)
   810f8:	dec00104 	addi	sp,sp,4
   810fc:	f800283a 	ret

00081100 <HDMITX_IsSinkSupportColorDepth36>:

bool HDMITX_IsSinkSupportColorDepth36(void){
   81100:	defffe04 	addi	sp,sp,-8
   81104:	df000115 	stw	fp,4(sp)
   81108:	df000104 	addi	fp,sp,4
    bool bSupport = FALSE;
   8110c:	e03fff15 	stw	zero,-4(fp)
    if (RxCapability.Valid && RxCapability.ValidHDMI && RxCapability.ValidCEA && 
   81110:	008002b4 	movhi	r2,10
   81114:	1085b304 	addi	r2,r2,5836
   81118:	10800003 	ldbu	r2,0(r2)
   8111c:	10803fcc 	andi	r2,r2,255
   81120:	10001126 	beq	r2,zero,81168 <HDMITX_IsSinkSupportColorDepth36+0x68>
   81124:	008002b4 	movhi	r2,10
   81128:	1085b304 	addi	r2,r2,5836
   8112c:	10803d17 	ldw	r2,244(r2)
   81130:	108000ac 	andhi	r2,r2,2
   81134:	10000c26 	beq	r2,zero,81168 <HDMITX_IsSinkSupportColorDepth36+0x68>
   81138:	008002b4 	movhi	r2,10
   8113c:	1085b304 	addi	r2,r2,5836
   81140:	10803d17 	ldw	r2,244(r2)
   81144:	1080006c 	andhi	r2,r2,1
   81148:	10000726 	beq	r2,zero,81168 <HDMITX_IsSinkSupportColorDepth36+0x68>
   8114c:	008002b4 	movhi	r2,10
   81150:	1085b304 	addi	r2,r2,5836
   81154:	10803b17 	ldw	r2,236(r2)
   81158:	1080080c 	andi	r2,r2,32
   8115c:	10000226 	beq	r2,zero,81168 <HDMITX_IsSinkSupportColorDepth36+0x68>
       RxCapability.dc.info.DC_36Bit)
        bSupport = TRUE;
   81160:	00800044 	movi	r2,1
   81164:	e0bfff15 	stw	r2,-4(fp)
    return bSupport;    
   81168:	e0bfff17 	ldw	r2,-4(fp)
}
   8116c:	e037883a 	mov	sp,fp
   81170:	df000017 	ldw	fp,0(sp)
   81174:	dec00104 	addi	sp,sp,4
   81178:	f800283a 	ret

0008117c <HDMITX_IsSinkSupportColorDepth30>:


bool HDMITX_IsSinkSupportColorDepth30(void){
   8117c:	defffe04 	addi	sp,sp,-8
   81180:	df000115 	stw	fp,4(sp)
   81184:	df000104 	addi	fp,sp,4
    bool bSupport = FALSE;
   81188:	e03fff15 	stw	zero,-4(fp)
    if (RxCapability.Valid && RxCapability.ValidHDMI && RxCapability.ValidCEA && 
   8118c:	008002b4 	movhi	r2,10
   81190:	1085b304 	addi	r2,r2,5836
   81194:	10800003 	ldbu	r2,0(r2)
   81198:	10803fcc 	andi	r2,r2,255
   8119c:	10001126 	beq	r2,zero,811e4 <HDMITX_IsSinkSupportColorDepth30+0x68>
   811a0:	008002b4 	movhi	r2,10
   811a4:	1085b304 	addi	r2,r2,5836
   811a8:	10803d17 	ldw	r2,244(r2)
   811ac:	108000ac 	andhi	r2,r2,2
   811b0:	10000c26 	beq	r2,zero,811e4 <HDMITX_IsSinkSupportColorDepth30+0x68>
   811b4:	008002b4 	movhi	r2,10
   811b8:	1085b304 	addi	r2,r2,5836
   811bc:	10803d17 	ldw	r2,244(r2)
   811c0:	1080006c 	andhi	r2,r2,1
   811c4:	10000726 	beq	r2,zero,811e4 <HDMITX_IsSinkSupportColorDepth30+0x68>
   811c8:	008002b4 	movhi	r2,10
   811cc:	1085b304 	addi	r2,r2,5836
   811d0:	10803b17 	ldw	r2,236(r2)
   811d4:	1080040c 	andi	r2,r2,16
   811d8:	10000226 	beq	r2,zero,811e4 <HDMITX_IsSinkSupportColorDepth30+0x68>
       RxCapability.dc.info.DC_30Bit)
        bSupport = TRUE;
   811dc:	00800044 	movi	r2,1
   811e0:	e0bfff15 	stw	r2,-4(fp)
    return bSupport;     
   811e4:	e0bfff17 	ldw	r2,-4(fp)
}
   811e8:	e037883a 	mov	sp,fp
   811ec:	df000017 	ldw	fp,0(sp)
   811f0:	dec00104 	addi	sp,sp,4
   811f4:	f800283a 	ret

000811f8 <HDMITX_SetOutputColorDepth>:

void HDMITX_SetOutputColorDepth(int ColorDepth){
   811f8:	defffd04 	addi	sp,sp,-12
   811fc:	dfc00215 	stw	ra,8(sp)
   81200:	df000115 	stw	fp,4(sp)
   81204:	df000104 	addi	fp,sp,4
   81208:	e13fff15 	stw	r4,-4(fp)
    SetOutputColorDepthPhase(ColorDepth, 0);
   8120c:	e0bfff17 	ldw	r2,-4(fp)
   81210:	10803fcc 	andi	r2,r2,255
   81214:	000b883a 	mov	r5,zero
   81218:	1009883a 	mov	r4,r2
   8121c:	008206c0 	call	8206c <SetOutputColorDepthPhase>
}
   81220:	0001883a 	nop
   81224:	e037883a 	mov	sp,fp
   81228:	dfc00117 	ldw	ra,4(sp)
   8122c:	df000017 	ldw	fp,0(sp)
   81230:	dec00204 	addi	sp,sp,8
   81234:	f800283a 	ret

00081238 <HDMITX_DevLoopProc>:



bool HDMITX_DevLoopProc()
{
   81238:	defffd04 	addi	sp,sp,-12
   8123c:	dfc00215 	stw	ra,8(sp)
   81240:	df000115 	stw	fp,4(sp)
   81244:	df000104 	addi	fp,sp,4
    static BYTE PreHPDChange = 0;
    static BYTE PreHPD = 0;
    BYTE HPD, HPDChange ;

    // Richard CheckHDMI(&HPD,&HPDChange) ;
    CheckHDMITX(&HPD,&HPDChange) ;
   81248:	e0bfff44 	addi	r2,fp,-3
   8124c:	100b883a 	mov	r5,r2
   81250:	e13fff04 	addi	r4,fp,-4
   81254:	0081b440 	call	81b44 <CheckHDMITX>
    
    if (HPD == PreHPD && HPDChange)  // richard add
   81258:	e0ffff03 	ldbu	r3,-4(fp)
   8125c:	d0a99403 	ldbu	r2,-22960(gp)
   81260:	18c03fcc 	andi	r3,r3,255
   81264:	10803fcc 	andi	r2,r2,255
   81268:	1880051e 	bne	r3,r2,81280 <HDMITX_DevLoopProc+0x48>
   8126c:	e0bfff43 	ldbu	r2,-3(fp)
   81270:	10803fcc 	andi	r2,r2,255
   81274:	10000226 	beq	r2,zero,81280 <HDMITX_DevLoopProc+0x48>
        return FALSE;
   81278:	0005883a 	mov	r2,zero
   8127c:	00006706 	br	8141c <HDMITX_DevLoopProc+0x1e4>
        
    TX_HDP = HPD;    
   81280:	e0bfff03 	ldbu	r2,-4(fp)
   81284:	10803fcc 	andi	r2,r2,255
   81288:	d0a99315 	stw	r2,-22964(gp)
    PreHPD = HPD;    
   8128c:	e0bfff03 	ldbu	r2,-4(fp)
   81290:	d0a99405 	stb	r2,-22960(gp)
    PreHPDChange = HPDChange;    
   81294:	e0bfff43 	ldbu	r2,-3(fp)
   81298:	d0a99445 	stb	r2,-22959(gp)
    
    if( HPDChange )
   8129c:	e0bfff43 	ldbu	r2,-3(fp)
   812a0:	10803fcc 	andi	r2,r2,255
   812a4:	10005226 	beq	r2,zero,813f0 <HDMITX_DevLoopProc+0x1b8>
    {
      
        
        OS_PRINTF("HPDChange\n");
   812a8:	010002b4 	movhi	r4,10
   812ac:	212e5c04 	addi	r4,r4,-18064
   812b0:	008780c0 	call	8780c <OS_PRINTF>
        if( HPD )
   812b4:	e0bfff03 	ldbu	r2,-4(fp)
   812b8:	10803fcc 	andi	r2,r2,255
   812bc:	10003626 	beq	r2,zero,81398 <HDMITX_DevLoopProc+0x160>
        {
            OS_PRINTF("HPD=ON\n");
   812c0:	010002b4 	movhi	r4,10
   812c4:	212e5f04 	addi	r4,r4,-18052
   812c8:	008780c0 	call	8780c <OS_PRINTF>
            RxCapability.Valid = ParseEDID() ;
   812cc:	00874280 	call	87428 <ParseEDID>
   812d0:	1007883a 	mov	r3,r2
   812d4:	008002b4 	movhi	r2,10
   812d8:	1085b304 	addi	r2,r2,5836
   812dc:	10c00005 	stb	r3,0(r2)
            //bOutputColorMode = F_MODE_YUV444; //F_MODE_RGB444; // richard node. users can change color space here according to HDMI sink 
            
            if( RxCapability.Valid && RxCapability.ValidHDMI )
   812e0:	008002b4 	movhi	r2,10
   812e4:	1085b304 	addi	r2,r2,5836
   812e8:	10800003 	ldbu	r2,0(r2)
   812ec:	10803fcc 	andi	r2,r2,255
   812f0:	10001326 	beq	r2,zero,81340 <HDMITX_DevLoopProc+0x108>
   812f4:	008002b4 	movhi	r2,10
   812f8:	1085b304 	addi	r2,r2,5836
   812fc:	10803d17 	ldw	r2,244(r2)
   81300:	108000ac 	andhi	r2,r2,2
   81304:	10000e26 	beq	r2,zero,81340 <HDMITX_DevLoopProc+0x108>
            {
                OS_PRINTF("HDMI Display found\n");
   81308:	010002b4 	movhi	r4,10
   8130c:	212e6104 	addi	r4,r4,-18044
   81310:	008780c0 	call	8780c <OS_PRINTF>
                bHDMIMode = TRUE ;
   81314:	00800044 	movi	r2,1
   81318:	d0a99d15 	stw	r2,-22924(gp)
                
                if(RxCapability.VideoMode & (1<<6))
   8131c:	008002b4 	movhi	r2,10
   81320:	1085b304 	addi	r2,r2,5836
   81324:	10800043 	ldbu	r2,1(r2)
   81328:	10803fcc 	andi	r2,r2,255
   8132c:	1080100c 	andi	r2,r2,64
   81330:	10001526 	beq	r2,zero,81388 <HDMITX_DevLoopProc+0x150>
                {
                    bAudioEnable = TRUE ;
   81334:	00800044 	movi	r2,1
   81338:	d0a99e15 	stw	r2,-22920(gp)
            if( RxCapability.Valid && RxCapability.ValidHDMI )
            {
                OS_PRINTF("HDMI Display found\n");
                bHDMIMode = TRUE ;
                
                if(RxCapability.VideoMode & (1<<6))
   8133c:	00001206 	br	81388 <HDMITX_DevLoopProc+0x150>
                    bOutputColorMode &= ~F_MODE_CLRMOD_MASK ;
                    bOutputColorMode |= F_MODE_YUV422 ;
                }
#endif           
            }
            else if (!RxCapability.Valid)
   81340:	008002b4 	movhi	r2,10
   81344:	1085b304 	addi	r2,r2,5836
   81348:	10800003 	ldbu	r2,0(r2)
   8134c:	10803fcc 	andi	r2,r2,255
   81350:	1000081e 	bne	r2,zero,81374 <HDMITX_DevLoopProc+0x13c>
            {
                OS_PRINTF("Failed to read EDID\n");
   81354:	010002b4 	movhi	r4,10
   81358:	212e6604 	addi	r4,r4,-18024
   8135c:	008780c0 	call	8780c <OS_PRINTF>
                
                // enable it when edid fail
                bHDMIMode = TRUE ;
   81360:	00800044 	movi	r2,1
   81364:	d0a99d15 	stw	r2,-22924(gp)
                bAudioEnable = TRUE ;
   81368:	00800044 	movi	r2,1
   8136c:	d0a99e15 	stw	r2,-22920(gp)
   81370:	00000506 	br	81388 <HDMITX_DevLoopProc+0x150>
            }     
            else    
            {
                OS_PRINTF("Invalid HDMI Display\n");
   81374:	010002b4 	movhi	r4,10
   81378:	212e6c04 	addi	r4,r4,-18000
   8137c:	008780c0 	call	8780c <OS_PRINTF>
                bHDMIMode = FALSE ;
   81380:	d0299d15 	stw	zero,-22924(gp)
                bAudioEnable = FALSE ;
   81384:	d0299e15 	stw	zero,-22920(gp)
            }

            OS_PRINTF("HDMITX_SetOutput\n");
   81388:	010002b4 	movhi	r4,10
   8138c:	212e7204 	addi	r4,r4,-17976
   81390:	008780c0 	call	8780c <OS_PRINTF>
   81394:	00001f06 	br	81414 <HDMITX_DevLoopProc+0x1dc>
            //HDMITX_SetOutput() ;
            
        }
        else
        {
            OS_PRINTF("HPD=OFF\n");
   81398:	010002b4 	movhi	r4,10
   8139c:	212e7704 	addi	r4,r4,-17956
   813a0:	008780c0 	call	8780c <OS_PRINTF>
            // unplug mode, ...
            OS_PRINTF("DisableVideoOutput\n");
   813a4:	010002b4 	movhi	r4,10
   813a8:	212e7a04 	addi	r4,r4,-17944
   813ac:	008780c0 	call	8780c <OS_PRINTF>
            //DisableVideoOutput() ;
            RxCapability.Valid = FALSE; // richard add
   813b0:	008002b4 	movhi	r2,10
   813b4:	1085b304 	addi	r2,r2,5836
   813b8:	10000005 	stb	zero,0(r2)
            RxCapability.ValidHDMI = FALSE; // richard add
   813bc:	008002b4 	movhi	r2,10
   813c0:	1085b304 	addi	r2,r2,5836
   813c4:	11003d83 	ldbu	r4,246(r2)
   813c8:	00ffff44 	movi	r3,-3
   813cc:	20c6703a 	and	r3,r4,r3
   813d0:	10c03d85 	stb	r3,246(r2)
            RxCapability.ValidCEA = FALSE; // richard add
   813d4:	008002b4 	movhi	r2,10
   813d8:	1085b304 	addi	r2,r2,5836
   813dc:	11003d83 	ldbu	r4,246(r2)
   813e0:	00ffff84 	movi	r3,-2
   813e4:	20c6703a 	and	r3,r4,r3
   813e8:	10c03d85 	stb	r3,246(r2)
   813ec:	00000906 	br	81414 <HDMITX_DevLoopProc+0x1dc>
        }
    }
    else // no stable but need to process mode change procedure
    {
        if(bChangeMode && HPD)
   813f0:	d0a99717 	ldw	r2,-22948(gp)
   813f4:	10000726 	beq	r2,zero,81414 <HDMITX_DevLoopProc+0x1dc>
   813f8:	e0bfff03 	ldbu	r2,-4(fp)
   813fc:	10803fcc 	andi	r2,r2,255
   81400:	10000426 	beq	r2,zero,81414 <HDMITX_DevLoopProc+0x1dc>
        {
            OS_PRINTF("HDMITX_SetOutput\n");
   81404:	010002b4 	movhi	r4,10
   81408:	212e7204 	addi	r4,r4,-17976
   8140c:	008780c0 	call	8780c <OS_PRINTF>
            HDMITX_SetOutput() ;
   81410:	0086b8c0 	call	86b8c <HDMITX_SetOutput>
        }
    }
    
    return HPDChange;
   81414:	e0bfff43 	ldbu	r2,-3(fp)
   81418:	10803fcc 	andi	r2,r2,255
}
   8141c:	e037883a 	mov	sp,fp
   81420:	dfc00117 	ldw	ra,4(sp)
   81424:	df000017 	ldw	fp,0(sp)
   81428:	dec00204 	addi	sp,sp,8
   8142c:	f800283a 	ret

00081430 <HDMITX_InitInstance>:
// external Interface                                                         //
//////////////////////////////////////////////////////////////////////

void
HDMITX_InitInstance(INSTANCE *pInstance)
{
   81430:	defffe04 	addi	sp,sp,-8
   81434:	df000115 	stw	fp,4(sp)
   81438:	df000104 	addi	fp,sp,4
   8143c:	e13fff15 	stw	r4,-4(fp)
	if(pInstance && 0 < HDMITX_INSTANCE_MAX)
   81440:	e0bfff17 	ldw	r2,-4(fp)
   81444:	10000b26 	beq	r2,zero,81474 <HDMITX_InitInstance+0x44>
	{
		Instance[0] = *pInstance ;
   81448:	008002b4 	movhi	r2,10
   8144c:	1085ab04 	addi	r2,r2,5804
   81450:	e0ffff17 	ldw	r3,-4(fp)
   81454:	19000017 	ldw	r4,0(r3)
   81458:	11000015 	stw	r4,0(r2)
   8145c:	19000117 	ldw	r4,4(r3)
   81460:	11000115 	stw	r4,4(r2)
   81464:	19000217 	ldw	r4,8(r3)
   81468:	11000215 	stw	r4,8(r2)
   8146c:	18c00317 	ldw	r3,12(r3)
   81470:	10c00315 	stw	r3,12(r2)
	}
}
   81474:	0001883a 	nop
   81478:	e037883a 	mov	sp,fp
   8147c:	df000017 	ldw	fp,0(sp)
   81480:	dec00104 	addi	sp,sp,4
   81484:	f800283a 	ret

00081488 <InitIT6613_HDCPROM>:

static BYTE InitIT6613_HDCPROM()
{
   81488:	defffc04 	addi	sp,sp,-16
   8148c:	dfc00315 	stw	ra,12(sp)
   81490:	df000215 	stw	fp,8(sp)
   81494:	df000204 	addi	fp,sp,8
    BYTE uc[5]  ;
    Switch_HDMITX_Bank(0) ;
   81498:	000b883a 	mov	r5,zero
   8149c:	010003c4 	movi	r4,15
   814a0:	0087aa80 	call	87aa8 <HDMITX_WriteI2C_Byte>
    HDMITX_WriteI2C_Byte(0xF8,0xC3) ;	//password
   814a4:	014030c4 	movi	r5,195
   814a8:	01003e04 	movi	r4,248
   814ac:	0087aa80 	call	87aa8 <HDMITX_WriteI2C_Byte>
    HDMITX_WriteI2C_Byte(0xF8,0xA5) ;	// password
   814b0:	01402944 	movi	r5,165
   814b4:	01003e04 	movi	r4,248
   814b8:	0087aa80 	call	87aa8 <HDMITX_WriteI2C_Byte>
    HDMITX_WriteI2C_Byte(REG_TX_LISTCTRL,0x60) ; // Richard, ????
   814bc:	01401804 	movi	r5,96
   814c0:	01000884 	movi	r4,34
   814c4:	0087aa80 	call	87aa8 <HDMITX_WriteI2C_Byte>
    I2C_Read_ByteN(0xE0,0x00,uc,5) ;  // richard note. internal rom is used
   814c8:	01c00144 	movi	r7,5
   814cc:	e1bffe04 	addi	r6,fp,-8
   814d0:	000b883a 	mov	r5,zero
   814d4:	01003804 	movi	r4,224
   814d8:	0087d100 	call	87d10 <I2C_Read_ByteN>
    
    if(uc[0] == 1 &&
   814dc:	e0bffe03 	ldbu	r2,-8(fp)
   814e0:	10803fcc 	andi	r2,r2,255
   814e4:	10800058 	cmpnei	r2,r2,1
   814e8:	1000171e 	bne	r2,zero,81548 <InitIT6613_HDCPROM+0xc0>
        uc[1] == 1 &&
   814ec:	e0bffe43 	ldbu	r2,-7(fp)
    HDMITX_WriteI2C_Byte(0xF8,0xC3) ;	//password
    HDMITX_WriteI2C_Byte(0xF8,0xA5) ;	// password
    HDMITX_WriteI2C_Byte(REG_TX_LISTCTRL,0x60) ; // Richard, ????
    I2C_Read_ByteN(0xE0,0x00,uc,5) ;  // richard note. internal rom is used
    
    if(uc[0] == 1 &&
   814f0:	10803fcc 	andi	r2,r2,255
   814f4:	10800058 	cmpnei	r2,r2,1
   814f8:	1000131e 	bne	r2,zero,81548 <InitIT6613_HDCPROM+0xc0>
        uc[1] == 1 &&
        uc[2] == 1 &&
   814fc:	e0bffe83 	ldbu	r2,-6(fp)
    HDMITX_WriteI2C_Byte(0xF8,0xA5) ;	// password
    HDMITX_WriteI2C_Byte(REG_TX_LISTCTRL,0x60) ; // Richard, ????
    I2C_Read_ByteN(0xE0,0x00,uc,5) ;  // richard note. internal rom is used
    
    if(uc[0] == 1 &&
        uc[1] == 1 &&
   81500:	10803fcc 	andi	r2,r2,255
   81504:	10800058 	cmpnei	r2,r2,1
   81508:	10000f1e 	bne	r2,zero,81548 <InitIT6613_HDCPROM+0xc0>
        uc[2] == 1 &&
        uc[3] == 1 &&
   8150c:	e0bffec3 	ldbu	r2,-5(fp)
    HDMITX_WriteI2C_Byte(REG_TX_LISTCTRL,0x60) ; // Richard, ????
    I2C_Read_ByteN(0xE0,0x00,uc,5) ;  // richard note. internal rom is used
    
    if(uc[0] == 1 &&
        uc[1] == 1 &&
        uc[2] == 1 &&
   81510:	10803fcc 	andi	r2,r2,255
   81514:	10800058 	cmpnei	r2,r2,1
   81518:	10000b1e 	bne	r2,zero,81548 <InitIT6613_HDCPROM+0xc0>
        uc[3] == 1 &&
        uc[4] == 1)
   8151c:	e0bfff03 	ldbu	r2,-4(fp)
    I2C_Read_ByteN(0xE0,0x00,uc,5) ;  // richard note. internal rom is used
    
    if(uc[0] == 1 &&
        uc[1] == 1 &&
        uc[2] == 1 &&
        uc[3] == 1 &&
   81520:	10803fcc 	andi	r2,r2,255
   81524:	10800058 	cmpnei	r2,r2,1
   81528:	1000071e 	bne	r2,zero,81548 <InitIT6613_HDCPROM+0xc0>
        uc[4] == 1)
    {
        // with internal eMem
        HDMITX_WriteI2C_Byte(REG_TX_ROM_HEADER,0xE0) ;
   8152c:	01403804 	movi	r5,224
   81530:	01000684 	movi	r4,26
   81534:	0087aa80 	call	87aa8 <HDMITX_WriteI2C_Byte>
        HDMITX_WriteI2C_Byte(REG_TX_LISTCTRL,0x48) ;
   81538:	01401204 	movi	r5,72
   8153c:	01000884 	movi	r4,34
   81540:	0087aa80 	call	87aa8 <HDMITX_WriteI2C_Byte>
   81544:	00000606 	br	81560 <InitIT6613_HDCPROM+0xd8>
    }
    else
    {
        // with external ROM
        HDMITX_WriteI2C_Byte(REG_TX_ROM_HEADER,0xA0) ;  // ROMHeader
   81548:	01402804 	movi	r5,160
   8154c:	01000684 	movi	r4,26
   81550:	0087aa80 	call	87aa8 <HDMITX_WriteI2C_Byte>
        HDMITX_WriteI2C_Byte(REG_TX_LISTCTRL,0x00) ; // Richard, ????
   81554:	000b883a 	mov	r5,zero
   81558:	01000884 	movi	r4,34
   8155c:	0087aa80 	call	87aa8 <HDMITX_WriteI2C_Byte>
    }
    HDMITX_WriteI2C_Byte(0xF8,0xFF) ;  // password
   81560:	01403fc4 	movi	r5,255
   81564:	01003e04 	movi	r4,248
   81568:	0087aa80 	call	87aa8 <HDMITX_WriteI2C_Byte>
    
    // richard add
    return ER_SUCCESS;
   8156c:	0005883a 	mov	r2,zero
}
   81570:	e037883a 	mov	sp,fp
   81574:	dfc00117 	ldw	ra,4(sp)
   81578:	df000017 	ldw	fp,0(sp)
   8157c:	dec00204 	addi	sp,sp,8
   81580:	f800283a 	ret

00081584 <InitIT6613>:

void InitIT6613()
{
   81584:	defffe04 	addi	sp,sp,-8
   81588:	dfc00115 	stw	ra,4(sp)
   8158c:	df000015 	stw	fp,0(sp)
   81590:	d839883a 	mov	fp,sp
	// config interrupt
    HDMITX_WriteI2C_Byte(REG_TX_INT_CTRL,Instance[0].bIntType) ;
   81594:	008002b4 	movhi	r2,10
   81598:	1085ab04 	addi	r2,r2,5804
   8159c:	10800083 	ldbu	r2,2(r2)
   815a0:	10803fcc 	andi	r2,r2,255
   815a4:	100b883a 	mov	r5,r2
   815a8:	01000144 	movi	r4,5
   815ac:	0087aa80 	call	87aa8 <HDMITX_WriteI2C_Byte>
    Instance[0].bIntPOL = (Instance[0].bIntType&B_INTPOL_ACTH)?TRUE:FALSE ;
   815b0:	008002b4 	movhi	r2,10
   815b4:	1085ab04 	addi	r2,r2,5804
   815b8:	10800083 	ldbu	r2,2(r2)
   815bc:	10803fcc 	andi	r2,r2,255
   815c0:	1004d1fa 	srli	r2,r2,7
   815c4:	1007883a 	mov	r3,r2
   815c8:	008002b4 	movhi	r2,10
   815cc:	1085ab04 	addi	r2,r2,5804
   815d0:	18c0004c 	andi	r3,r3,1
   815d4:	18c7883a 	add	r3,r3,r3
   815d8:	18cb883a 	add	r5,r3,r3
   815dc:	11000303 	ldbu	r4,12(r2)
   815e0:	00fffec4 	movi	r3,-5
   815e4:	20c6703a 	and	r3,r4,r3
   815e8:	1809883a 	mov	r4,r3
   815ec:	2807883a 	mov	r3,r5
   815f0:	20c6b03a 	or	r3,r4,r3
   815f4:	10c00305 	stb	r3,12(r2)

	// Reset 
    HDMITX_WriteI2C_Byte(REG_TX_SW_RST,B_REF_RST|B_VID_RST|B_AUD_RST|B_AREF_RST|B_HDCP_RST) ;
   815f8:	01400f44 	movi	r5,61
   815fc:	01000104 	movi	r4,4
   81600:	0087aa80 	call	87aa8 <HDMITX_WriteI2C_Byte>
    DelayMS(1) ;
   81604:	01000044 	movi	r4,1
   81608:	00877380 	call	87738 <DelayMS>
    HDMITX_WriteI2C_Byte(REG_TX_SW_RST,B_VID_RST|B_AUD_RST|B_AREF_RST|B_HDCP_RST) ;
   8160c:	01400744 	movi	r5,29
   81610:	01000104 	movi	r4,4
   81614:	0087aa80 	call	87aa8 <HDMITX_WriteI2C_Byte>
//    HDMITX_WriteI2C_Byte(REG_TX_HDMI_MODE, 0x01);  // set HDMI mode    
    HDMITX_WriteI2C_Byte(REG_TX_HDMI_MODE, 0x00);  // set DVI mode    
#endif    

    // Avoid power loading in un play status.
    HDMITX_WriteI2C_Byte(REG_TX_AFE_DRV_CTRL,B_AFE_DRV_RST|B_AFE_DRV_PWD) ;
   81618:	01400c04 	movi	r5,48
   8161c:	01001844 	movi	r4,97
   81620:	0087aa80 	call	87aa8 <HDMITX_WriteI2C_Byte>

    // set interrupt mask,mask value 0 is interrupt available.
// richard    HDMITX_WriteI2C_Byte(REG_TX_INT_MASK1,0xB2) ;  // enable interrupt: HPD, DDCBusHangMask, 
    HDMITX_WriteI2C_Byte(REG_TX_INT_MASK1,0xB2) ;  // enable interrupt: HPD, DDCBusHangMask, 
   81624:	01402c84 	movi	r5,178
   81628:	01000244 	movi	r4,9
   8162c:	0087aa80 	call	87aa8 <HDMITX_WriteI2C_Byte>
    HDMITX_WriteI2C_Byte(REG_TX_INT_MASK2,0xF8) ;  // enable interrupt: AuthFailMask, AUthDoneMask, KSVListChkMask
   81630:	01403e04 	movi	r5,248
   81634:	01000284 	movi	r4,10
   81638:	0087aa80 	call	87aa8 <HDMITX_WriteI2C_Byte>
    HDMITX_WriteI2C_Byte(REG_TX_INT_MASK3,0x37) ; //  enable interrupt: PktAudMask, PktDBDMask, PkMpgMask, AUdCTSMask, HDCPSynDetMask
   8163c:	01400dc4 	movi	r5,55
   81640:	010002c4 	movi	r4,11
   81644:	0087aa80 	call	87aa8 <HDMITX_WriteI2C_Byte>

    Switch_HDMITX_Bank(0) ;
   81648:	000b883a 	mov	r5,zero
   8164c:	010003c4 	movi	r4,15
   81650:	0087aa80 	call	87aa8 <HDMITX_WriteI2C_Byte>
    DISABLE_NULL_PKT() ;
   81654:	00864940 	call	86494 <DISABLE_NULL_PKT>
    DISABLE_ACP_PKT() ;
   81658:	00864c80 	call	864c8 <DISABLE_ACP_PKT>
    DISABLE_ISRC1_PKT() ;
   8165c:	00864fc0 	call	864fc <DISABLE_ISRC1_PKT>
    DISABLE_ISRC2_PKT() ;
   81660:	00865300 	call	86530 <DISABLE_ISRC2_PKT>
    DISABLE_AVI_INFOFRM_PKT() ;
   81664:	00865640 	call	86564 <DISABLE_AVI_INFOFRM_PKT>
    DISABLE_AUD_INFOFRM_PKT() ;
   81668:	00865980 	call	86598 <DISABLE_AUD_INFOFRM_PKT>
    DISABLE_SPD_INFOFRM_PKT() ;
   8166c:	00865cc0 	call	865cc <DISABLE_SPD_INFOFRM_PKT>
    DISABLE_MPG_INFOFRM_PKT();
   81670:	00866000 	call	86600 <DISABLE_MPG_INFOFRM_PKT>
    

	//////////////////////////////////////////////////////////////////
	// Setup Output Audio format.
	//////////////////////////////////////////////////////////////////
    HDMITX_WriteI2C_Byte(REG_TX_AUDIO_CTRL1,Instance[0].bOutputAudioMode) ; // regE1 bOutputAudioMode should be loaded from ROM image.
   81674:	008002b4 	movhi	r2,10
   81678:	1085ab04 	addi	r2,r2,5804
   8167c:	10800103 	ldbu	r2,4(r2)
   81680:	10803fcc 	andi	r2,r2,255
   81684:	100b883a 	mov	r5,r2
   81688:	01003844 	movi	r4,225
   8168c:	0087aa80 	call	87aa8 <HDMITX_WriteI2C_Byte>

	//////////////////////////////////////////////////////////////////
	// Setup HDCP ROM
	//////////////////////////////////////////////////////////////////
	InitIT6613_HDCPROM() ;
   81690:	00814880 	call	81488 <InitIT6613_HDCPROM>
// #pragma message("EXTERN ROM CODED") ;
// 	HDMITX_WriteI2C_Byte(REG_TX_ROM_HEADER,0xA0) ;
// #endif


}
   81694:	0001883a 	nop
   81698:	e037883a 	mov	sp,fp
   8169c:	dfc00117 	ldw	ra,4(sp)
   816a0:	df000017 	ldw	fp,0(sp)
   816a4:	dec00204 	addi	sp,sp,8
   816a8:	f800283a 	ret

000816ac <SetupVideoInputSignal>:

//////////////////////////////////////////////////////////////////////
// export this for dynamic change input signal
//////////////////////////////////////////////////////////////////////
BOOL SetupVideoInputSignal(BYTE inputSignalType)
{
   816ac:	defffe04 	addi	sp,sp,-8
   816b0:	df000115 	stw	fp,4(sp)
   816b4:	df000104 	addi	fp,sp,4
   816b8:	2005883a 	mov	r2,r4
   816bc:	e0bfff05 	stb	r2,-4(fp)
	Instance[0].bInputVideoSignalType = inputSignalType ;
   816c0:	008002b4 	movhi	r2,10
   816c4:	1085ab04 	addi	r2,r2,5804
   816c8:	e0ffff03 	ldbu	r3,-4(fp)
   816cc:	10c000c5 	stb	r3,3(r2)
    // SetInputMode(inputColorMode,Instance[0].bInputVideoSignalType) ;
    return TRUE ;
   816d0:	00800044 	movi	r2,1
}
   816d4:	e037883a 	mov	sp,fp
   816d8:	df000017 	ldw	fp,0(sp)
   816dc:	dec00104 	addi	sp,sp,4
   816e0:	f800283a 	ret

000816e4 <EnableVideoOutput>:

BOOL EnableVideoOutput(VIDEOPCLKLEVEL level,BYTE inputColorMode,BYTE outputColorMode,BYTE bHDMI)
{
   816e4:	defff904 	addi	sp,sp,-28
   816e8:	dfc00615 	stw	ra,24(sp)
   816ec:	df000515 	stw	fp,20(sp)
   816f0:	df000504 	addi	fp,sp,20
   816f4:	e13ffc15 	stw	r4,-16(fp)
   816f8:	2809883a 	mov	r4,r5
   816fc:	3007883a 	mov	r3,r6
   81700:	3805883a 	mov	r2,r7
   81704:	e13ffd05 	stb	r4,-12(fp)
   81708:	e0fffe05 	stb	r3,-8(fp)
   8170c:	e0bfff05 	stb	r2,-4(fp)
    // should be configured by initsys.c
    WORD i ;
    BYTE uc ;
    // VIDEOPCLKLEVEL level ;

    HDMITX_WriteI2C_Byte(REG_TX_SW_RST,B_VID_RST|B_AUD_RST|B_AREF_RST|B_HDCP_RST) ;
   81710:	01400744 	movi	r5,29
   81714:	01000104 	movi	r4,4
   81718:	0087aa80 	call	87aa8 <HDMITX_WriteI2C_Byte>

    Instance[0].bHDMIMode = (BYTE)bHDMI ;
   8171c:	e0bfff03 	ldbu	r2,-4(fp)
   81720:	1080004c 	andi	r2,r2,1
   81724:	1007883a 	mov	r3,r2
   81728:	008002b4 	movhi	r2,10
   8172c:	1085ab04 	addi	r2,r2,5804
   81730:	18c0004c 	andi	r3,r3,1
   81734:	18cb883a 	add	r5,r3,r3
   81738:	11000303 	ldbu	r4,12(r2)
   8173c:	00ffff44 	movi	r3,-3
   81740:	20c6703a 	and	r3,r4,r3
   81744:	1809883a 	mov	r4,r3
   81748:	2807883a 	mov	r3,r5
   8174c:	20c6b03a 	or	r3,r4,r3
   81750:	10c00305 	stb	r3,12(r2)

    if(Instance[0].bHDMIMode)
   81754:	008002b4 	movhi	r2,10
   81758:	1085ab04 	addi	r2,r2,5804
   8175c:	10800317 	ldw	r2,12(r2)
   81760:	1080008c 	andi	r2,r2,2
   81764:	10000226 	beq	r2,zero,81770 <EnableVideoOutput+0x8c>
    {
        SetAVMute(TRUE) ;
   81768:	01000044 	movi	r4,1
   8176c:	0081fe00 	call	81fe0 <SetAVMute>
    }

    SetInputMode(inputColorMode,Instance[0].bInputVideoSignalType) ;
   81770:	e0fffd03 	ldbu	r3,-12(fp)
   81774:	008002b4 	movhi	r2,10
   81778:	1085ab04 	addi	r2,r2,5804
   8177c:	108000c3 	ldbu	r2,3(r2)
   81780:	10803fcc 	andi	r2,r2,255
   81784:	100b883a 	mov	r5,r2
   81788:	1809883a 	mov	r4,r3
   8178c:	00827300 	call	82730 <SetInputMode>

    SetCSCScale(inputColorMode,outputColorMode) ;
   81790:	e0bffd03 	ldbu	r2,-12(fp)
   81794:	e0fffe03 	ldbu	r3,-8(fp)
   81798:	180b883a 	mov	r5,r3
   8179c:	1009883a 	mov	r4,r2
   817a0:	008287c0 	call	8287c <SetCSCScale>

    if(Instance[0].bHDMIMode)
   817a4:	008002b4 	movhi	r2,10
   817a8:	1085ab04 	addi	r2,r2,5804
   817ac:	10800317 	ldw	r2,12(r2)
   817b0:	1080008c 	andi	r2,r2,2
   817b4:	10000426 	beq	r2,zero,817c8 <EnableVideoOutput+0xe4>
    {
        HDMITX_WriteI2C_Byte(REG_TX_HDMI_MODE,B_TX_HDMI_MODE) ;
   817b8:	01400044 	movi	r5,1
   817bc:	01003004 	movi	r4,192
   817c0:	0087aa80 	call	87aa8 <HDMITX_WriteI2C_Byte>
   817c4:	00000306 	br	817d4 <EnableVideoOutput+0xf0>
    }
    else
    {
        HDMITX_WriteI2C_Byte(REG_TX_HDMI_MODE,B_TX_DVI_MODE) ;
   817c8:	000b883a 	mov	r5,zero
   817cc:	01003004 	movi	r4,192
   817d0:	0087aa80 	call	87aa8 <HDMITX_WriteI2C_Byte>
    uc = HDMITX_ReadI2C_Byte(REG_TX_CLK_CTRL1) ;
    uc |= B_VDO_LATCH_EDGE ;
    HDMITX_WriteI2C_Byte(REG_TX_CLK_CTRL1, uc) ;
#endif    

    HDMITX_WriteI2C_Byte(REG_TX_SW_RST,          B_AUD_RST|B_AREF_RST|B_HDCP_RST) ;
   817d4:	01400544 	movi	r5,21
   817d8:	01000104 	movi	r4,4
   817dc:	0087aa80 	call	87aa8 <HDMITX_WriteI2C_Byte>
    // else
    // {
    //     level = PCLK_LOW ;
    // }

    SetupAFE(level) ; // pass if High Freq request
   817e0:	e13ffc17 	ldw	r4,-16(fp)
   817e4:	0082db40 	call	82db4 <SetupAFE>

    for(i = 0 ; i < 100 ; i++)
   817e8:	e03ffb0d 	sth	zero,-20(fp)
   817ec:	00000a06 	br	81818 <EnableVideoOutput+0x134>
    {
        if(HDMITX_ReadI2C_Byte(REG_TX_SYS_STATUS) & B_TXVIDSTABLE)
   817f0:	01000384 	movi	r4,14
   817f4:	0087a640 	call	87a64 <HDMITX_ReadI2C_Byte>
   817f8:	10803fcc 	andi	r2,r2,255
   817fc:	1080040c 	andi	r2,r2,16
   81800:	1000091e 	bne	r2,zero,81828 <EnableVideoOutput+0x144>
        {
            break ;

        }
        DelayMS(1) ;
   81804:	01000044 	movi	r4,1
   81808:	00877380 	call	87738 <DelayMS>
    //     level = PCLK_LOW ;
    // }

    SetupAFE(level) ; // pass if High Freq request

    for(i = 0 ; i < 100 ; i++)
   8180c:	e0bffb0b 	ldhu	r2,-20(fp)
   81810:	10800044 	addi	r2,r2,1
   81814:	e0bffb0d 	sth	r2,-20(fp)
   81818:	e0bffb0b 	ldhu	r2,-20(fp)
   8181c:	10801930 	cmpltui	r2,r2,100
   81820:	103ff31e 	bne	r2,zero,817f0 <__alt_data_end+0xfffb1930>
   81824:	00000106 	br	8182c <EnableVideoOutput+0x148>
    {
        if(HDMITX_ReadI2C_Byte(REG_TX_SYS_STATUS) & B_TXVIDSTABLE)
        {
            break ;
   81828:	0001883a 	nop
        }
        DelayMS(1) ;
    }
    // Clive suggestion.
    // clear int3 video stable interrupt.
    HDMITX_WriteI2C_Byte(REG_TX_INT_CLR0,0) ;
   8182c:	000b883a 	mov	r5,zero
   81830:	01000304 	movi	r4,12
   81834:	0087aa80 	call	87aa8 <HDMITX_WriteI2C_Byte>
    HDMITX_WriteI2C_Byte(REG_TX_INT_CLR1,B_CLR_VIDSTABLE) ;
   81838:	01401004 	movi	r5,64
   8183c:	01000344 	movi	r4,13
   81840:	0087aa80 	call	87aa8 <HDMITX_WriteI2C_Byte>
    HDMITX_WriteI2C_Byte(REG_TX_SYS_STATUS,B_INTACTDONE) ;
   81844:	01400044 	movi	r5,1
   81848:	01000384 	movi	r4,14
   8184c:	0087aa80 	call	87aa8 <HDMITX_WriteI2C_Byte>
    HDMITX_WriteI2C_Byte(REG_TX_SYS_STATUS,0) ;
   81850:	000b883a 	mov	r5,zero
   81854:	01000384 	movi	r4,14
   81858:	0087aa80 	call	87aa8 <HDMITX_WriteI2C_Byte>

    FireAFE() ;
   8185c:	0082e9c0 	call	82e9c <FireAFE>
	return TRUE ;
   81860:	00800044 	movi	r2,1
}
   81864:	e037883a 	mov	sp,fp
   81868:	dfc00117 	ldw	ra,4(sp)
   8186c:	df000017 	ldw	fp,0(sp)
   81870:	dec00204 	addi	sp,sp,8
   81874:	f800283a 	ret

00081878 <EnableAudioOutput>:

BOOL EnableAudioOutput(ULONG VideoPixelClock,BYTE bAudioSampleFreq,BYTE ChannelNumber,BYTE bAudSWL,BYTE bSPDIF)
{
   81878:	defff504 	addi	sp,sp,-44
   8187c:	dfc00a15 	stw	ra,40(sp)
   81880:	df000915 	stw	fp,36(sp)
   81884:	df000904 	addi	fp,sp,36
   81888:	e13ffb15 	stw	r4,-20(fp)
   8188c:	3009883a 	mov	r4,r6
   81890:	3807883a 	mov	r3,r7
   81894:	e0800217 	ldw	r2,8(fp)
   81898:	e17ffc05 	stb	r5,-16(fp)
   8189c:	e13ffd05 	stb	r4,-12(fp)
   818a0:	e0fffe05 	stb	r3,-8(fp)
   818a4:	e0bfff05 	stb	r2,-4(fp)
    BYTE bAudioChannelEnable ;
  // richard   unsigned long N ;

    Instance[0].TMDSClock = VideoPixelClock ;
   818a8:	008002b4 	movhi	r2,10
   818ac:	1085ab04 	addi	r2,r2,5804
   818b0:	e0fffb17 	ldw	r3,-20(fp)
   818b4:	10c00215 	stw	r3,8(r2)
    Instance[0].bAudFs = bAudioSampleFreq ;
   818b8:	008002b4 	movhi	r2,10
   818bc:	1085ab04 	addi	r2,r2,5804
   818c0:	e0fffc03 	ldbu	r3,-16(fp)
   818c4:	10c001c5 	stb	r3,7(r2)
    
    ErrorF("EnableAudioOutput(%d,%ld,%x,%d,%d,%d);\n",0,VideoPixelClock,bAudioSampleFreq,ChannelNumber,bAudSWL,bSPDIF) ;
   818c8:	e17ffc03 	ldbu	r5,-16(fp)
   818cc:	e0bffd03 	ldbu	r2,-12(fp)
   818d0:	e0fffe03 	ldbu	r3,-8(fp)
   818d4:	e13fff03 	ldbu	r4,-4(fp)
   818d8:	d9000215 	stw	r4,8(sp)
   818dc:	d8c00115 	stw	r3,4(sp)
   818e0:	d8800015 	stw	r2,0(sp)
   818e4:	280f883a 	mov	r7,r5
   818e8:	e1bffb17 	ldw	r6,-20(fp)
   818ec:	000b883a 	mov	r5,zero
   818f0:	010002b4 	movhi	r4,10
   818f4:	212e7f04 	addi	r4,r4,-17924
   818f8:	00877a40 	call	877a4 <ErrorF>

    switch(ChannelNumber)
   818fc:	e0bffd03 	ldbu	r2,-12(fp)
   81900:	10bfff44 	addi	r2,r2,-3
   81904:	10c001a8 	cmpgeui	r3,r2,6
   81908:	1800151e 	bne	r3,zero,81960 <EnableAudioOutput+0xe8>
   8190c:	100690ba 	slli	r3,r2,2
   81910:	00800234 	movhi	r2,8
   81914:	10864904 	addi	r2,r2,6436
   81918:	1885883a 	add	r2,r3,r2
   8191c:	10800017 	ldw	r2,0(r2)
   81920:	1000683a 	jmp	r2
   81924:	00081954 	movui	zero,8293
   81928:	00081954 	movui	zero,8293
   8192c:	00081948 	cmpgei	zero,zero,8293
   81930:	00081948 	cmpgei	zero,zero,8293
   81934:	0008193c 	xorhi	zero,zero,8292
   81938:	0008193c 	xorhi	zero,zero,8292
    {
    case 7:
    case 8:
        bAudioChannelEnable = 0xF ;
   8193c:	008003c4 	movi	r2,15
   81940:	e0bffa05 	stb	r2,-24(fp)
        break ;
   81944:	00000906 	br	8196c <EnableAudioOutput+0xf4>
    case 6:
    case 5:
        bAudioChannelEnable = 0x7 ;
   81948:	008001c4 	movi	r2,7
   8194c:	e0bffa05 	stb	r2,-24(fp)
        break ;
   81950:	00000606 	br	8196c <EnableAudioOutput+0xf4>
    case 4:
    case 3:
        bAudioChannelEnable = 0x3 ;
   81954:	008000c4 	movi	r2,3
   81958:	e0bffa05 	stb	r2,-24(fp)
        break ;
   8195c:	00000306 	br	8196c <EnableAudioOutput+0xf4>
    case 2:
    case 1:
    default:
        bAudioChannelEnable = 0x1 ;
   81960:	00800044 	movi	r2,1
   81964:	e0bffa05 	stb	r2,-24(fp)
        break ;
   81968:	0001883a 	nop
    }

    if(bSPDIF) bAudioChannelEnable |= B_AUD_SPDIF ;
   8196c:	e0bfff03 	ldbu	r2,-4(fp)
   81970:	10000326 	beq	r2,zero,81980 <EnableAudioOutput+0x108>
   81974:	e0bffa03 	ldbu	r2,-24(fp)
   81978:	10800414 	ori	r2,r2,16
   8197c:	e0bffa05 	stb	r2,-24(fp)

    if( bSPDIF )
   81980:	e0bfff03 	ldbu	r2,-4(fp)
   81984:	10001c26 	beq	r2,zero,819f8 <EnableAudioOutput+0x180>
    {
        Switch_HDMITX_Bank(1) ;
   81988:	01400044 	movi	r5,1
   8198c:	010003c4 	movi	r4,15
   81990:	0087aa80 	call	87aa8 <HDMITX_WriteI2C_Byte>
        HDMITX_WriteI2C_Byte(REGPktAudCTS0,0x50) ;
   81994:	01401404 	movi	r5,80
   81998:	01000c04 	movi	r4,48
   8199c:	0087aa80 	call	87aa8 <HDMITX_WriteI2C_Byte>
        HDMITX_WriteI2C_Byte(REGPktAudCTS1,0x73) ;
   819a0:	01401cc4 	movi	r5,115
   819a4:	01000c44 	movi	r4,49
   819a8:	0087aa80 	call	87aa8 <HDMITX_WriteI2C_Byte>
        HDMITX_WriteI2C_Byte(REGPktAudCTS2,0x00) ;
   819ac:	000b883a 	mov	r5,zero
   819b0:	01000c84 	movi	r4,50
   819b4:	0087aa80 	call	87aa8 <HDMITX_WriteI2C_Byte>
        
        HDMITX_WriteI2C_Byte(REGPktAudN0,0) ;
   819b8:	000b883a 	mov	r5,zero
   819bc:	01000cc4 	movi	r4,51
   819c0:	0087aa80 	call	87aa8 <HDMITX_WriteI2C_Byte>
        HDMITX_WriteI2C_Byte(REGPktAudN1,0x18) ;
   819c4:	01400604 	movi	r5,24
   819c8:	01000d04 	movi	r4,52
   819cc:	0087aa80 	call	87aa8 <HDMITX_WriteI2C_Byte>
        HDMITX_WriteI2C_Byte(REGPktAudN2,0) ;
   819d0:	000b883a 	mov	r5,zero
   819d4:	01000d44 	movi	r4,53
   819d8:	0087aa80 	call	87aa8 <HDMITX_WriteI2C_Byte>
        Switch_HDMITX_Bank(0) ;
   819dc:	000b883a 	mov	r5,zero
   819e0:	010003c4 	movi	r4,15
   819e4:	0087aa80 	call	87aa8 <HDMITX_WriteI2C_Byte>
    
        HDMITX_WriteI2C_Byte(0xC5, 2) ; // D[1] = 0, HW auto count CTS
   819e8:	01400084 	movi	r5,2
   819ec:	01003144 	movi	r4,197
   819f0:	0087aa80 	call	87aa8 <HDMITX_WriteI2C_Byte>
   819f4:	00000406 	br	81a08 <EnableAudioOutput+0x190>
    }
    else
    {
        SetNCTS(VideoPixelClock,bAudioSampleFreq) ;
   819f8:	e0bffc03 	ldbu	r2,-16(fp)
   819fc:	100b883a 	mov	r5,r2
   81a00:	e13ffb17 	ldw	r4,-20(fp)
   81a04:	00836880 	call	83688 <SetNCTS>
        HDMITX_WriteI2C_Byte(REG_TX_PKT_SINGLE_CTRL,0) ; // D[1] = 0,HW auto count CTS
    }
    */

	//HDMITX_AndREG_Byte(REG_TX_SW_RST,~(B_AUD_RST|B_AREF_RST)) ;
    SetAudioFormat(ChannelNumber,bAudioChannelEnable,bAudioSampleFreq,bAudSWL,bSPDIF) ;
   81a08:	e0fffd03 	ldbu	r3,-12(fp)
   81a0c:	e13ffa03 	ldbu	r4,-24(fp)
   81a10:	e17ffc03 	ldbu	r5,-16(fp)
   81a14:	e1bffe03 	ldbu	r6,-8(fp)
   81a18:	e0bfff03 	ldbu	r2,-4(fp)
   81a1c:	d8800015 	stw	r2,0(sp)
   81a20:	300f883a 	mov	r7,r6
   81a24:	280d883a 	mov	r6,r5
   81a28:	200b883a 	mov	r5,r4
   81a2c:	1809883a 	mov	r4,r3
   81a30:	0082f300 	call	82f30 <SetAudioFormat>

    #ifdef HDMITX_REG_DEBUG
    DumpCatHDMITXReg() ;
    #endif // HDMITX_REG_DEBUG
    return TRUE ;
   81a34:	00800044 	movi	r2,1
}
   81a38:	e037883a 	mov	sp,fp
   81a3c:	dfc00117 	ldw	ra,4(sp)
   81a40:	df000017 	ldw	fp,0(sp)
   81a44:	dec00204 	addi	sp,sp,8
   81a48:	f800283a 	ret

00081a4c <GetEDIDData>:


BOOL
GetEDIDData(int EDIDBlockID,BYTE *pEDIDData)
{
   81a4c:	defffc04 	addi	sp,sp,-16
   81a50:	dfc00315 	stw	ra,12(sp)
   81a54:	df000215 	stw	fp,8(sp)
   81a58:	df000204 	addi	fp,sp,8
   81a5c:	e13ffe15 	stw	r4,-8(fp)
   81a60:	e17fff15 	stw	r5,-4(fp)
	if(!pEDIDData)
   81a64:	e0bfff17 	ldw	r2,-4(fp)
   81a68:	1000021e 	bne	r2,zero,81a74 <GetEDIDData+0x28>
	{
		return FALSE ;
   81a6c:	0005883a 	mov	r2,zero
   81a70:	00001a06 	br	81adc <GetEDIDData+0x90>
	}

    if(ReadEDID(pEDIDData,EDIDBlockID/2,(EDIDBlockID%2)*128,128) == ER_FAIL)
   81a74:	e0bffe17 	ldw	r2,-8(fp)
   81a78:	1006d7fa 	srli	r3,r2,31
   81a7c:	1885883a 	add	r2,r3,r2
   81a80:	1005d07a 	srai	r2,r2,1
   81a84:	11003fcc 	andi	r4,r2,255
   81a88:	e0fffe17 	ldw	r3,-8(fp)
   81a8c:	00a00034 	movhi	r2,32768
   81a90:	10800044 	addi	r2,r2,1
   81a94:	1884703a 	and	r2,r3,r2
   81a98:	1000040e 	bge	r2,zero,81aac <GetEDIDData+0x60>
   81a9c:	10bfffc4 	addi	r2,r2,-1
   81aa0:	00ffff84 	movi	r3,-2
   81aa4:	10c4b03a 	or	r2,r2,r3
   81aa8:	10800044 	addi	r2,r2,1
   81aac:	10bfe024 	muli	r2,r2,-128
   81ab0:	10803fcc 	andi	r2,r2,255
   81ab4:	01c02004 	movi	r7,128
   81ab8:	100d883a 	mov	r6,r2
   81abc:	200b883a 	mov	r5,r4
   81ac0:	e13fff17 	ldw	r4,-4(fp)
   81ac4:	0083c740 	call	83c74 <ReadEDID>
   81ac8:	10800058 	cmpnei	r2,r2,1
   81acc:	1000021e 	bne	r2,zero,81ad8 <GetEDIDData+0x8c>
    {
        return FALSE ;
   81ad0:	0005883a 	mov	r2,zero
   81ad4:	00000106 	br	81adc <GetEDIDData+0x90>
    }

    return TRUE ;
   81ad8:	00800044 	movi	r2,1
}
   81adc:	e037883a 	mov	sp,fp
   81ae0:	dfc00117 	ldw	ra,4(sp)
   81ae4:	df000017 	ldw	fp,0(sp)
   81ae8:	dec00204 	addi	sp,sp,8
   81aec:	f800283a 	ret

00081af0 <EnableHDCP>:


BOOL
EnableHDCP(BYTE bEnable)
{
   81af0:	defffd04 	addi	sp,sp,-12
   81af4:	dfc00215 	stw	ra,8(sp)
   81af8:	df000115 	stw	fp,4(sp)
   81afc:	df000104 	addi	fp,sp,4
   81b00:	2005883a 	mov	r2,r4
   81b04:	e0bfff05 	stb	r2,-4(fp)
    if(bEnable)
   81b08:	e0bfff03 	ldbu	r2,-4(fp)
   81b0c:	10000626 	beq	r2,zero,81b28 <EnableHDCP+0x38>
    {
        if(ER_FAIL == HDCP_Authenticate())
   81b10:	00844880 	call	84488 <HDCP_Authenticate>
   81b14:	10800058 	cmpnei	r2,r2,1
   81b18:	1000041e 	bne	r2,zero,81b2c <EnableHDCP+0x3c>
        {
			
            HDCP_ResetAuth() ;    
   81b1c:	0083fb80 	call	83fb8 <HDCP_ResetAuth>
			return FALSE ;
   81b20:	0005883a 	mov	r2,zero
   81b24:	00000206 	br	81b30 <EnableHDCP+0x40>
        }

    }
    else
    {
        HDCP_ResetAuth() ;    
   81b28:	0083fb80 	call	83fb8 <HDCP_ResetAuth>
    }
    return TRUE ;
   81b2c:	00800044 	movi	r2,1
}
   81b30:	e037883a 	mov	sp,fp
   81b34:	dfc00117 	ldw	ra,4(sp)
   81b38:	df000017 	ldw	fp,0(sp)
   81b3c:	dec00204 	addi	sp,sp,8
   81b40:	f800283a 	ret

00081b44 <CheckHDMITX>:


BOOL
CheckHDMITX(BYTE *pHPD,BYTE *pHPDChange)
{
   81b44:	defff704 	addi	sp,sp,-36
   81b48:	dfc00815 	stw	ra,32(sp)
   81b4c:	df000715 	stw	fp,28(sp)
   81b50:	df000704 	addi	fp,sp,28
   81b54:	e13ffe15 	stw	r4,-8(fp)
   81b58:	e17fff15 	stw	r5,-4(fp)
    BYTE intdata1,intdata2,intdata3,sysstat;
    BYTE  intclr3 = 0 ;
   81b5c:	e03ff905 	stb	zero,-28(fp)
    BOOL PrevHPD = Instance[0].bHPD ;
   81b60:	008002b4 	movhi	r2,10
   81b64:	1085ab04 	addi	r2,r2,5804
   81b68:	10800317 	ldw	r2,12(r2)
   81b6c:	1004d0fa 	srli	r2,r2,3
   81b70:	1080004c 	andi	r2,r2,1
   81b74:	10803fcc 	andi	r2,r2,255
   81b78:	e0bffa15 	stw	r2,-24(fp)
    BOOL HPD ;

    sysstat = HDMITX_ReadI2C_Byte(REG_TX_SYS_STATUS) ;  // read system status register
   81b7c:	01000384 	movi	r4,14
   81b80:	0087a640 	call	87a64 <HDMITX_ReadI2C_Byte>
   81b84:	e0bffb05 	stb	r2,-20(fp)
    
  //  OS_PRINTF("sysstat(REG[0x0E])=%02Xh\r\n", sysstat);    

    HPD = ((sysstat & (B_HPDETECT|B_RXSENDETECT)) == (B_HPDETECT|B_RXSENDETECT))?TRUE:FALSE ;
   81b88:	e0bffb03 	ldbu	r2,-20(fp)
   81b8c:	1080180c 	andi	r2,r2,96
   81b90:	10801820 	cmpeqi	r2,r2,96
   81b94:	10803fcc 	andi	r2,r2,255
   81b98:	e0bffc15 	stw	r2,-16(fp)

    // 2007/06/20 added by jj_tseng@chipadvanced.com
    if(pHPDChange)
   81b9c:	e0bfff17 	ldw	r2,-4(fp)
   81ba0:	10000226 	beq	r2,zero,81bac <CheckHDMITX+0x68>
    {
    	*pHPDChange = FALSE ;
   81ba4:	e0bfff17 	ldw	r2,-4(fp)
   81ba8:	10000005 	stb	zero,0(r2)

    }
    //~jj_tseng@chipadvanced.com 2007/06/20

    if(!HPD)
   81bac:	e0bffc17 	ldw	r2,-16(fp)
   81bb0:	1000061e 	bne	r2,zero,81bcc <CheckHDMITX+0x88>
    {
        Instance[0].bAuthenticated = FALSE ;
   81bb4:	008002b4 	movhi	r2,10
   81bb8:	1085ab04 	addi	r2,r2,5804
   81bbc:	11000303 	ldbu	r4,12(r2)
   81bc0:	00ffff84 	movi	r3,-2
   81bc4:	20c6703a 	and	r3,r4,r3
   81bc8:	10c00305 	stb	r3,12(r2)
    }

    if(sysstat & B_INT_ACTIVE)  // interrupt is activce
   81bcc:	e0bffb03 	ldbu	r2,-20(fp)
   81bd0:	10803fcc 	andi	r2,r2,255
   81bd4:	1080201c 	xori	r2,r2,128
   81bd8:	10bfe004 	addi	r2,r2,-128
   81bdc:	10006c0e 	bge	r2,zero,81d90 <CheckHDMITX+0x24c>
    {

        intdata1 = HDMITX_ReadI2C_Byte(REG_TX_INT_STAT1) ;  // reg 0x06
   81be0:	01000184 	movi	r4,6
   81be4:	0087a640 	call	87a64 <HDMITX_ReadI2C_Byte>
   81be8:	e0bffd05 	stb	r2,-12(fp)
        //ErrorF("INT_Handler: reg%02x = %02x\n",REG_TX_INT_STAT1,intdata1) ;

		if(intdata1 & B_INT_DDCFIFO_ERR)
   81bec:	e0bffd03 	ldbu	r2,-12(fp)
   81bf0:	1080040c 	andi	r2,r2,16
   81bf4:	10000126 	beq	r2,zero,81bfc <CheckHDMITX+0xb8>
		{
		    //ErrorF("DDC FIFO Error.\n") ;
		    ClearDDCFIFO() ;
   81bf8:	0083ac00 	call	83ac0 <ClearDDCFIFO>
		}


		if(intdata1 & B_INT_DDC_BUS_HANG)
   81bfc:	e0bffd03 	ldbu	r2,-12(fp)
   81c00:	1080010c 	andi	r2,r2,4
   81c04:	10000d26 	beq	r2,zero,81c3c <CheckHDMITX+0xf8>
		{
		    ErrorF("DDC BUS HANG.\n") ;
   81c08:	010002b4 	movhi	r4,10
   81c0c:	212e8904 	addi	r4,r4,-17884
   81c10:	00877a40 	call	877a4 <ErrorF>
            AbortDDC() ;
   81c14:	0083b400 	call	83b40 <AbortDDC>

            if(Instance[0].bAuthenticated)
   81c18:	008002b4 	movhi	r2,10
   81c1c:	1085ab04 	addi	r2,r2,5804
   81c20:	10800317 	ldw	r2,12(r2)
   81c24:	1080004c 	andi	r2,r2,1
   81c28:	10000426 	beq	r2,zero,81c3c <CheckHDMITX+0xf8>
            {
                ErrorF("when DDC hang,and aborted DDC,the HDCP authentication need to restart.\n") ;
   81c2c:	010002b4 	movhi	r4,10
   81c30:	212e8d04 	addi	r4,r4,-17868
   81c34:	00877a40 	call	877a4 <ErrorF>
                HDCP_ResumeAuthentication() ;
   81c38:	00862b00 	call	862b0 <HDCP_ResumeAuthentication>
            }
		}


		if(intdata1 & (B_INT_HPD_PLUG|B_INT_RX_SENSE))
   81c3c:	e0bffd03 	ldbu	r2,-12(fp)
   81c40:	108000cc 	andi	r2,r2,3
   81c44:	10000f26 	beq	r2,zero,81c84 <CheckHDMITX+0x140>
		{

            if(pHPDChange) *pHPDChange = TRUE ;
   81c48:	e0bfff17 	ldw	r2,-4(fp)
   81c4c:	10000326 	beq	r2,zero,81c5c <CheckHDMITX+0x118>
   81c50:	e0bfff17 	ldw	r2,-4(fp)
   81c54:	00c00044 	movi	r3,1
   81c58:	10c00005 	stb	r3,0(r2)

            if(!HPD)
   81c5c:	e0bffc17 	ldw	r2,-16(fp)
   81c60:	1000081e 	bne	r2,zero,81c84 <CheckHDMITX+0x140>
            {
                // reset
                HDMITX_WriteI2C_Byte(REG_TX_SW_RST,B_AREF_RST|B_VID_RST|B_AUD_RST|B_HDCP_RST) ;
   81c64:	01400744 	movi	r5,29
   81c68:	01000104 	movi	r4,4
   81c6c:	0087aa80 	call	87aa8 <HDMITX_WriteI2C_Byte>
                DelayMS(1) ;
   81c70:	01000044 	movi	r4,1
   81c74:	00877380 	call	87738 <DelayMS>
                HDMITX_WriteI2C_Byte(REG_TX_AFE_DRV_CTRL,B_AFE_DRV_RST|B_AFE_DRV_PWD) ;
   81c78:	01400c04 	movi	r5,48
   81c7c:	01001844 	movi	r4,97
   81c80:	0087aa80 	call	87aa8 <HDMITX_WriteI2C_Byte>
                // VState = TXVSTATE_Unplug ;
            }
		}


        intdata2 = HDMITX_ReadI2C_Byte(REG_TX_INT_STAT2) ;  // reg 0x07
   81c84:	010001c4 	movi	r4,7
   81c88:	0087a640 	call	87a64 <HDMITX_ReadI2C_Byte>
   81c8c:	e0bffd45 	stb	r2,-11(fp)
        //ErrorF("INT_Handler: reg%02x = %02x\n",REG_TX_INT_STAT2,intdata2) ;



		#ifdef SUPPORT_HDCP
		if(intdata2 & B_INT_AUTH_DONE)
   81c90:	e0bffd43 	ldbu	r2,-11(fp)
   81c94:	1080008c 	andi	r2,r2,2
   81c98:	10001126 	beq	r2,zero,81ce0 <CheckHDMITX+0x19c>
		{
            ErrorF("interrupt Authenticate Done.\n") ;
   81c9c:	010002b4 	movhi	r4,10
   81ca0:	212e9f04 	addi	r4,r4,-17796
   81ca4:	00877a40 	call	877a4 <ErrorF>
            HDMITX_OrREG_Byte(REG_TX_INT_MASK2,B_T_AUTH_DONE_MASK) ;
   81ca8:	01000284 	movi	r4,10
   81cac:	0087a640 	call	87a64 <HDMITX_ReadI2C_Byte>
   81cb0:	10800094 	ori	r2,r2,2
   81cb4:	10803fcc 	andi	r2,r2,255
   81cb8:	100b883a 	mov	r5,r2
   81cbc:	01000284 	movi	r4,10
   81cc0:	0087aa80 	call	87aa8 <HDMITX_WriteI2C_Byte>
            Instance[0].bAuthenticated = TRUE ;
   81cc4:	008002b4 	movhi	r2,10
   81cc8:	1085ab04 	addi	r2,r2,5804
   81ccc:	10c00303 	ldbu	r3,12(r2)
   81cd0:	18c00054 	ori	r3,r3,1
   81cd4:	10c00305 	stb	r3,12(r2)
            SetAVMute(FALSE) ;
   81cd8:	0009883a 	mov	r4,zero
   81cdc:	0081fe00 	call	81fe0 <SetAVMute>
		}

		if(intdata2 & B_INT_AUTH_FAIL)
   81ce0:	e0bffd43 	ldbu	r2,-11(fp)
   81ce4:	1080004c 	andi	r2,r2,1
   81ce8:	10000526 	beq	r2,zero,81d00 <CheckHDMITX+0x1bc>
		{
            ErrorF("interrupt Authenticate Fail.\n") ;
   81cec:	010002b4 	movhi	r4,10
   81cf0:	212ea704 	addi	r4,r4,-17764
   81cf4:	00877a40 	call	877a4 <ErrorF>
			AbortDDC();   // @emily add
   81cf8:	0083b400 	call	83b40 <AbortDDC>
            HDCP_ResumeAuthentication() ;
   81cfc:	00862b00 	call	862b0 <HDCP_ResumeAuthentication>
        }
        #endif // SUPPORT_HDCP

		intdata3 = HDMITX_ReadI2C_Byte(REG_TX_INT_STAT3) ;  // reg 0x08
   81d00:	01000204 	movi	r4,8
   81d04:	0087a640 	call	87a64 <HDMITX_ReadI2C_Byte>
   81d08:	e0bffd85 	stb	r2,-10(fp)
		if(intdata3 & B_INT_VIDSTABLE)
   81d0c:	e0bffd83 	ldbu	r2,-10(fp)
   81d10:	1080040c 	andi	r2,r2,16
   81d14:	10000726 	beq	r2,zero,81d34 <CheckHDMITX+0x1f0>
		{
			sysstat = HDMITX_ReadI2C_Byte(REG_TX_SYS_STATUS) ;
   81d18:	01000384 	movi	r4,14
   81d1c:	0087a640 	call	87a64 <HDMITX_ReadI2C_Byte>
   81d20:	e0bffb05 	stb	r2,-20(fp)
			if(sysstat & B_TXVIDSTABLE)
   81d24:	e0bffb03 	ldbu	r2,-20(fp)
   81d28:	1080040c 	andi	r2,r2,16
   81d2c:	10000126 	beq	r2,zero,81d34 <CheckHDMITX+0x1f0>
			{
				FireAFE() ;
   81d30:	0082e9c0 	call	82e9c <FireAFE>
			}
		}
        HDMITX_WriteI2C_Byte(REG_TX_INT_CLR0,0xFF) ;
   81d34:	01403fc4 	movi	r5,255
   81d38:	01000304 	movi	r4,12
   81d3c:	0087aa80 	call	87aa8 <HDMITX_WriteI2C_Byte>
        HDMITX_WriteI2C_Byte(REG_TX_INT_CLR1,0xFF) ;
   81d40:	01403fc4 	movi	r5,255
   81d44:	01000344 	movi	r4,13
   81d48:	0087aa80 	call	87aa8 <HDMITX_WriteI2C_Byte>
        intclr3 = (HDMITX_ReadI2C_Byte(REG_TX_SYS_STATUS))|B_CLR_AUD_CTS | B_INTACTDONE ;
   81d4c:	01000384 	movi	r4,14
   81d50:	0087a640 	call	87a64 <HDMITX_ReadI2C_Byte>
   81d54:	108000d4 	ori	r2,r2,3
   81d58:	e0bff905 	stb	r2,-28(fp)
        HDMITX_WriteI2C_Byte(REG_TX_SYS_STATUS,intclr3) ; // clear interrupt.
   81d5c:	e0bff903 	ldbu	r2,-28(fp)
   81d60:	100b883a 	mov	r5,r2
   81d64:	01000384 	movi	r4,14
   81d68:	0087aa80 	call	87aa8 <HDMITX_WriteI2C_Byte>
        intclr3 &= ~(B_INTACTDONE) ;
   81d6c:	e0fff903 	ldbu	r3,-28(fp)
   81d70:	00bfff84 	movi	r2,-2
   81d74:	1884703a 	and	r2,r3,r2
   81d78:	e0bff905 	stb	r2,-28(fp)
        HDMITX_WriteI2C_Byte(REG_TX_SYS_STATUS,intclr3) ; // INTACTDONE reset to zero.
   81d7c:	e0bff903 	ldbu	r2,-28(fp)
   81d80:	100b883a 	mov	r5,r2
   81d84:	01000384 	movi	r4,14
   81d88:	0087aa80 	call	87aa8 <HDMITX_WriteI2C_Byte>
   81d8c:	00001106 	br	81dd4 <CheckHDMITX+0x290>
    }
    else
    {
        if(pHPDChange)
   81d90:	e0bfff17 	ldw	r2,-4(fp)
   81d94:	10000f26 	beq	r2,zero,81dd4 <CheckHDMITX+0x290>
        {
            *pHPDChange = (HPD != PrevHPD)?TRUE:FALSE ;
   81d98:	e0fffc17 	ldw	r3,-16(fp)
   81d9c:	e0bffa17 	ldw	r2,-24(fp)
   81da0:	1884c03a 	cmpne	r2,r3,r2
   81da4:	1007883a 	mov	r3,r2
   81da8:	e0bfff17 	ldw	r2,-4(fp)
   81dac:	10c00005 	stb	r3,0(r2)

            if(*pHPDChange &&(!HPD))
   81db0:	e0bfff17 	ldw	r2,-4(fp)
   81db4:	10800003 	ldbu	r2,0(r2)
   81db8:	10803fcc 	andi	r2,r2,255
   81dbc:	10000526 	beq	r2,zero,81dd4 <CheckHDMITX+0x290>
   81dc0:	e0bffc17 	ldw	r2,-16(fp)
   81dc4:	1000031e 	bne	r2,zero,81dd4 <CheckHDMITX+0x290>
            {
                HDMITX_WriteI2C_Byte(REG_TX_AFE_DRV_CTRL,B_AFE_DRV_RST|B_AFE_DRV_PWD) ;
   81dc8:	01400c04 	movi	r5,48
   81dcc:	01001844 	movi	r4,97
   81dd0:	0087aa80 	call	87aa8 <HDMITX_WriteI2C_Byte>
            }
        }
    }

    SetupAudioChannel() ; // 2007/12/12 added by jj_tseng
   81dd4:	008355c0 	call	8355c <SetupAudioChannel>
    
    if(pHPD)
   81dd8:	e0bffe17 	ldw	r2,-8(fp)
   81ddc:	10000526 	beq	r2,zero,81df4 <CheckHDMITX+0x2b0>
    {
        *pHPD = HPD ? TRUE:FALSE ;
   81de0:	e0bffc17 	ldw	r2,-16(fp)
   81de4:	1004c03a 	cmpne	r2,r2,zero
   81de8:	1007883a 	mov	r3,r2
   81dec:	e0bffe17 	ldw	r2,-8(fp)
   81df0:	10c00005 	stb	r3,0(r2)
    }

    Instance[0].bHPD  = (BYTE)HPD ;
   81df4:	e0bffc17 	ldw	r2,-16(fp)
   81df8:	1080004c 	andi	r2,r2,1
   81dfc:	1007883a 	mov	r3,r2
   81e00:	008002b4 	movhi	r2,10
   81e04:	1085ab04 	addi	r2,r2,5804
   81e08:	18c0004c 	andi	r3,r3,1
   81e0c:	180a90fa 	slli	r5,r3,3
   81e10:	11000303 	ldbu	r4,12(r2)
   81e14:	00fffdc4 	movi	r3,-9
   81e18:	20c6703a 	and	r3,r4,r3
   81e1c:	1809883a 	mov	r4,r3
   81e20:	2807883a 	mov	r3,r5
   81e24:	20c6b03a 	or	r3,r4,r3
   81e28:	10c00305 	stb	r3,12(r2)
    return HPD ;
   81e2c:	e0bffc17 	ldw	r2,-16(fp)
}
   81e30:	e037883a 	mov	sp,fp
   81e34:	dfc00117 	ldw	ra,4(sp)
   81e38:	df000017 	ldw	fp,0(sp)
   81e3c:	dec00204 	addi	sp,sp,8
   81e40:	f800283a 	ret

00081e44 <DisableIT6613>:

void
DisableIT6613()
{
   81e44:	defffe04 	addi	sp,sp,-8
   81e48:	dfc00115 	stw	ra,4(sp)
   81e4c:	df000015 	stw	fp,0(sp)
   81e50:	d839883a 	mov	fp,sp
    HDMITX_WriteI2C_Byte(REG_TX_SW_RST,B_AREF_RST|B_VID_RST|B_AUD_RST|B_HDCP_RST) ;
   81e54:	01400744 	movi	r5,29
   81e58:	01000104 	movi	r4,4
   81e5c:	0087aa80 	call	87aa8 <HDMITX_WriteI2C_Byte>
    DelayMS(1) ;
   81e60:	01000044 	movi	r4,1
   81e64:	00877380 	call	87738 <DelayMS>
    HDMITX_WriteI2C_Byte(REG_TX_AFE_DRV_CTRL,B_AFE_DRV_RST|B_AFE_DRV_PWD) ;
   81e68:	01400c04 	movi	r5,48
   81e6c:	01001844 	movi	r4,97
   81e70:	0087aa80 	call	87aa8 <HDMITX_WriteI2C_Byte>
}
   81e74:	0001883a 	nop
   81e78:	e037883a 	mov	sp,fp
   81e7c:	dfc00117 	ldw	ra,4(sp)
   81e80:	df000017 	ldw	fp,0(sp)
   81e84:	dec00204 	addi	sp,sp,8
   81e88:	f800283a 	ret

00081e8c <DisableVideoOutput>:

void
DisableVideoOutput()
{
   81e8c:	defffd04 	addi	sp,sp,-12
   81e90:	dfc00215 	stw	ra,8(sp)
   81e94:	df000115 	stw	fp,4(sp)
   81e98:	df000104 	addi	fp,sp,4
	BYTE uc = HDMITX_ReadI2C_Byte(REG_TX_SW_RST) | B_VID_RST ;
   81e9c:	01000104 	movi	r4,4
   81ea0:	0087a640 	call	87a64 <HDMITX_ReadI2C_Byte>
   81ea4:	10800214 	ori	r2,r2,8
   81ea8:	e0bfff05 	stb	r2,-4(fp)
	HDMITX_WriteI2C_Byte(REG_TX_SW_RST,uc) ;
   81eac:	e0bfff03 	ldbu	r2,-4(fp)
   81eb0:	100b883a 	mov	r5,r2
   81eb4:	01000104 	movi	r4,4
   81eb8:	0087aa80 	call	87aa8 <HDMITX_WriteI2C_Byte>
    HDMITX_WriteI2C_Byte(REG_TX_AFE_DRV_CTRL,B_AFE_DRV_RST|B_AFE_DRV_PWD) ;
   81ebc:	01400c04 	movi	r5,48
   81ec0:	01001844 	movi	r4,97
   81ec4:	0087aa80 	call	87aa8 <HDMITX_WriteI2C_Byte>
}
   81ec8:	0001883a 	nop
   81ecc:	e037883a 	mov	sp,fp
   81ed0:	dfc00117 	ldw	ra,4(sp)
   81ed4:	df000017 	ldw	fp,0(sp)
   81ed8:	dec00204 	addi	sp,sp,8
   81edc:	f800283a 	ret

00081ee0 <DisableAudioOutput>:


void
DisableAudioOutput()
{
   81ee0:	defffd04 	addi	sp,sp,-12
   81ee4:	dfc00215 	stw	ra,8(sp)
   81ee8:	df000115 	stw	fp,4(sp)
   81eec:	df000104 	addi	fp,sp,4
	BYTE uc = HDMITX_ReadI2C_Byte(REG_TX_SW_RST) | B_AUD_RST ;
   81ef0:	01000104 	movi	r4,4
   81ef4:	0087a640 	call	87a64 <HDMITX_ReadI2C_Byte>
   81ef8:	10800114 	ori	r2,r2,4
   81efc:	e0bfff05 	stb	r2,-4(fp)
	HDMITX_WriteI2C_Byte(REG_TX_SW_RST,uc) ;
   81f00:	e0bfff03 	ldbu	r2,-4(fp)
   81f04:	100b883a 	mov	r5,r2
   81f08:	01000104 	movi	r4,4
   81f0c:	0087aa80 	call	87aa8 <HDMITX_WriteI2C_Byte>
}
   81f10:	0001883a 	nop
   81f14:	e037883a 	mov	sp,fp
   81f18:	dfc00117 	ldw	ra,4(sp)
   81f1c:	df000017 	ldw	fp,0(sp)
   81f20:	dec00204 	addi	sp,sp,8
   81f24:	f800283a 	ret

00081f28 <EnableAVIInfoFrame>:



BOOL
EnableAVIInfoFrame(BYTE bEnable,BYTE *pAVIInfoFrame)
{
   81f28:	defffc04 	addi	sp,sp,-16
   81f2c:	dfc00315 	stw	ra,12(sp)
   81f30:	df000215 	stw	fp,8(sp)
   81f34:	df000204 	addi	fp,sp,8
   81f38:	2005883a 	mov	r2,r4
   81f3c:	e17fff15 	stw	r5,-4(fp)
   81f40:	e0bffe05 	stb	r2,-8(fp)
    if(!bEnable)
   81f44:	e0bffe03 	ldbu	r2,-8(fp)
   81f48:	1000031e 	bne	r2,zero,81f58 <EnableAVIInfoFrame+0x30>
    {
        DISABLE_AVI_INFOFRM_PKT() ;
   81f4c:	00865640 	call	86564 <DISABLE_AVI_INFOFRM_PKT>
        return TRUE ;
   81f50:	00800044 	movi	r2,1
   81f54:	00000606 	br	81f70 <EnableAVIInfoFrame+0x48>
    }

    if(SetAVIInfoFrame((AVI_InfoFrame *)pAVIInfoFrame) == ER_SUCCESS)
   81f58:	e13fff17 	ldw	r4,-4(fp)
   81f5c:	00866340 	call	86634 <SetAVIInfoFrame>
   81f60:	1000021e 	bne	r2,zero,81f6c <EnableAVIInfoFrame+0x44>
    {
        return TRUE ;
   81f64:	00800044 	movi	r2,1
   81f68:	00000106 	br	81f70 <EnableAVIInfoFrame+0x48>
    }

    return FALSE ;
   81f6c:	0005883a 	mov	r2,zero
}
   81f70:	e037883a 	mov	sp,fp
   81f74:	dfc00117 	ldw	ra,4(sp)
   81f78:	df000017 	ldw	fp,0(sp)
   81f7c:	dec00204 	addi	sp,sp,8
   81f80:	f800283a 	ret

00081f84 <EnableAudioInfoFrame>:

BOOL
EnableAudioInfoFrame(BYTE bEnable,BYTE *pAudioInfoFrame)
{
   81f84:	defffc04 	addi	sp,sp,-16
   81f88:	dfc00315 	stw	ra,12(sp)
   81f8c:	df000215 	stw	fp,8(sp)
   81f90:	df000204 	addi	fp,sp,8
   81f94:	2005883a 	mov	r2,r4
   81f98:	e17fff15 	stw	r5,-4(fp)
   81f9c:	e0bffe05 	stb	r2,-8(fp)
    if(!bEnable)
   81fa0:	e0bffe03 	ldbu	r2,-8(fp)
   81fa4:	1000031e 	bne	r2,zero,81fb4 <EnableAudioInfoFrame+0x30>
    {
        // richard modify, DISABLE_AVI_INFOFRM_PKT() ;
        DISABLE_AUD_INFOFRM_PKT(); 
   81fa8:	00865980 	call	86598 <DISABLE_AUD_INFOFRM_PKT>
        return TRUE ;
   81fac:	00800044 	movi	r2,1
   81fb0:	00000606 	br	81fcc <EnableAudioInfoFrame+0x48>
    }


    if(SetAudioInfoFrame((Audio_InfoFrame *)pAudioInfoFrame) == ER_SUCCESS)
   81fb4:	e13fff17 	ldw	r4,-4(fp)
   81fb8:	008683c0 	call	8683c <SetAudioInfoFrame>
   81fbc:	1000021e 	bne	r2,zero,81fc8 <EnableAudioInfoFrame+0x44>
    {
        return TRUE ;
   81fc0:	00800044 	movi	r2,1
   81fc4:	00000106 	br	81fcc <EnableAudioInfoFrame+0x48>
    }

    return FALSE ;
   81fc8:	0005883a 	mov	r2,zero
}
   81fcc:	e037883a 	mov	sp,fp
   81fd0:	dfc00117 	ldw	ra,4(sp)
   81fd4:	df000017 	ldw	fp,0(sp)
   81fd8:	dec00204 	addi	sp,sp,8
   81fdc:	f800283a 	ret

00081fe0 <SetAVMute>:

void
SetAVMute(BYTE bEnable)
{
   81fe0:	defffc04 	addi	sp,sp,-16
   81fe4:	dfc00315 	stw	ra,12(sp)
   81fe8:	df000215 	stw	fp,8(sp)
   81fec:	df000204 	addi	fp,sp,8
   81ff0:	2005883a 	mov	r2,r4
   81ff4:	e0bfff05 	stb	r2,-4(fp)
    BYTE uc ;

    Switch_HDMITX_Bank(0) ;
   81ff8:	000b883a 	mov	r5,zero
   81ffc:	010003c4 	movi	r4,15
   82000:	0087aa80 	call	87aa8 <HDMITX_WriteI2C_Byte>
    uc = HDMITX_ReadI2C_Byte(REG_TX_GCP) ;
   82004:	01003044 	movi	r4,193
   82008:	0087a640 	call	87a64 <HDMITX_ReadI2C_Byte>
   8200c:	e0bffe05 	stb	r2,-8(fp)
    uc &= ~B_TX_SETAVMUTE ;
   82010:	e0fffe03 	ldbu	r3,-8(fp)
   82014:	00bfff84 	movi	r2,-2
   82018:	1884703a 	and	r2,r3,r2
   8201c:	e0bffe05 	stb	r2,-8(fp)
    uc |= bEnable?B_TX_SETAVMUTE:0 ;
   82020:	e0bfff03 	ldbu	r2,-4(fp)
   82024:	1004c03a 	cmpne	r2,r2,zero
   82028:	1007883a 	mov	r3,r2
   8202c:	e0bffe03 	ldbu	r2,-8(fp)
   82030:	1884b03a 	or	r2,r3,r2
   82034:	e0bffe05 	stb	r2,-8(fp)
    HDMITX_WriteI2C_Byte(REG_TX_GCP,uc) ;
   82038:	e0bffe03 	ldbu	r2,-8(fp)
   8203c:	100b883a 	mov	r5,r2
   82040:	01003044 	movi	r4,193
   82044:	0087aa80 	call	87aa8 <HDMITX_WriteI2C_Byte>
    HDMITX_WriteI2C_Byte(REG_TX_PKT_GENERAL_CTRL,B_ENABLE_PKT|B_REPEAT_PKT) ;
   82048:	014000c4 	movi	r5,3
   8204c:	01003184 	movi	r4,198
   82050:	0087aa80 	call	87aa8 <HDMITX_WriteI2C_Byte>
}
   82054:	0001883a 	nop
   82058:	e037883a 	mov	sp,fp
   8205c:	dfc00117 	ldw	ra,4(sp)
   82060:	df000017 	ldw	fp,0(sp)
   82064:	dec00204 	addi	sp,sp,8
   82068:	f800283a 	ret

0008206c <SetOutputColorDepthPhase>:

void
SetOutputColorDepthPhase(BYTE ColorDepth,BYTE bPhase)
{
   8206c:	defffb04 	addi	sp,sp,-20
   82070:	dfc00415 	stw	ra,16(sp)
   82074:	df000315 	stw	fp,12(sp)
   82078:	df000304 	addi	fp,sp,12
   8207c:	2007883a 	mov	r3,r4
   82080:	2805883a 	mov	r2,r5
   82084:	e0fffe05 	stb	r3,-8(fp)
   82088:	e0bfff05 	stb	r2,-4(fp)
    BYTE uc ;
    BYTE bColorDepth ;

    if(ColorDepth == 30)
   8208c:	e0bffe03 	ldbu	r2,-8(fp)
   82090:	10800798 	cmpnei	r2,r2,30
   82094:	1000031e 	bne	r2,zero,820a4 <SetOutputColorDepthPhase+0x38>
    {
        bColorDepth = B_CD_30 ;
   82098:	00801404 	movi	r2,80
   8209c:	e0bffd05 	stb	r2,-12(fp)
   820a0:	00000d06 	br	820d8 <SetOutputColorDepthPhase+0x6c>
    }
    else if (ColorDepth == 36)
   820a4:	e0bffe03 	ldbu	r2,-8(fp)
   820a8:	10800918 	cmpnei	r2,r2,36
   820ac:	1000031e 	bne	r2,zero,820bc <SetOutputColorDepthPhase+0x50>
    {
        bColorDepth = B_CD_36 ;
   820b0:	00801804 	movi	r2,96
   820b4:	e0bffd05 	stb	r2,-12(fp)
   820b8:	00000706 	br	820d8 <SetOutputColorDepthPhase+0x6c>
    }
    else if (ColorDepth == 24)
   820bc:	e0bffe03 	ldbu	r2,-8(fp)
   820c0:	10800618 	cmpnei	r2,r2,24
   820c4:	1000031e 	bne	r2,zero,820d4 <SetOutputColorDepthPhase+0x68>
    {
        bColorDepth = B_CD_24 ;
   820c8:	00801004 	movi	r2,64
   820cc:	e0bffd05 	stb	r2,-12(fp)
   820d0:	00000106 	br	820d8 <SetOutputColorDepthPhase+0x6c>
    }
    else
    {
        bColorDepth = 0 ; // not indicated
   820d4:	e03ffd05 	stb	zero,-12(fp)
    }

    Switch_HDMITX_Bank(0) ;
   820d8:	000b883a 	mov	r5,zero
   820dc:	010003c4 	movi	r4,15
   820e0:	0087aa80 	call	87aa8 <HDMITX_WriteI2C_Byte>
    uc = HDMITX_ReadI2C_Byte(REG_TX_GCP) ;
   820e4:	01003044 	movi	r4,193
   820e8:	0087a640 	call	87a64 <HDMITX_ReadI2C_Byte>
   820ec:	e0bffd45 	stb	r2,-11(fp)
    uc &= ~B_COLOR_DEPTH_MASK ;
   820f0:	e0fffd43 	ldbu	r3,-11(fp)
   820f4:	00bfe3c4 	movi	r2,-113
   820f8:	1884703a 	and	r2,r3,r2
   820fc:	e0bffd45 	stb	r2,-11(fp)
    uc |= bColorDepth&B_COLOR_DEPTH_MASK;
   82100:	e0bffd03 	ldbu	r2,-12(fp)
   82104:	10801c0c 	andi	r2,r2,112
   82108:	1007883a 	mov	r3,r2
   8210c:	e0bffd43 	ldbu	r2,-11(fp)
   82110:	1884b03a 	or	r2,r3,r2
   82114:	e0bffd45 	stb	r2,-11(fp)
    HDMITX_WriteI2C_Byte(REG_TX_GCP,uc) ;
   82118:	e0bffd43 	ldbu	r2,-11(fp)
   8211c:	100b883a 	mov	r5,r2
   82120:	01003044 	movi	r4,193
   82124:	0087aa80 	call	87aa8 <HDMITX_WriteI2C_Byte>
}
   82128:	0001883a 	nop
   8212c:	e037883a 	mov	sp,fp
   82130:	dfc00117 	ldw	ra,4(sp)
   82134:	df000017 	ldw	fp,0(sp)
   82138:	dec00204 	addi	sp,sp,8
   8213c:	f800283a 	ret

00082140 <Get6613Reg>:

void
Get6613Reg(BYTE *pReg)
{
   82140:	defffa04 	addi	sp,sp,-24
   82144:	dfc00515 	stw	ra,20(sp)
   82148:	df000415 	stw	fp,16(sp)
   8214c:	dc000315 	stw	r16,12(sp)
   82150:	df000404 	addi	fp,sp,16
   82154:	e13ffe15 	stw	r4,-8(fp)
	int i ;
	BYTE reg ;
    Switch_HDMITX_Bank(0) ;
   82158:	000b883a 	mov	r5,zero
   8215c:	010003c4 	movi	r4,15
   82160:	0087aa80 	call	87aa8 <HDMITX_WriteI2C_Byte>
	for(i = 0 ; i < 0x100 ; i++)
   82164:	e03ffc15 	stw	zero,-16(fp)
   82168:	00000c06 	br	8219c <Get6613Reg+0x5c>
	{
		reg = i & 0xFF ;
   8216c:	e0bffc17 	ldw	r2,-16(fp)
   82170:	e0bffd05 	stb	r2,-12(fp)
		pReg[i] = HDMITX_ReadI2C_Byte(reg) ;
   82174:	e0bffc17 	ldw	r2,-16(fp)
   82178:	e0fffe17 	ldw	r3,-8(fp)
   8217c:	18a1883a 	add	r16,r3,r2
   82180:	e0bffd03 	ldbu	r2,-12(fp)
   82184:	1009883a 	mov	r4,r2
   82188:	0087a640 	call	87a64 <HDMITX_ReadI2C_Byte>
   8218c:	80800005 	stb	r2,0(r16)
Get6613Reg(BYTE *pReg)
{
	int i ;
	BYTE reg ;
    Switch_HDMITX_Bank(0) ;
	for(i = 0 ; i < 0x100 ; i++)
   82190:	e0bffc17 	ldw	r2,-16(fp)
   82194:	10800044 	addi	r2,r2,1
   82198:	e0bffc15 	stw	r2,-16(fp)
   8219c:	e0bffc17 	ldw	r2,-16(fp)
   821a0:	10804010 	cmplti	r2,r2,256
   821a4:	103ff11e 	bne	r2,zero,8216c <__alt_data_end+0xfffb22ac>
	{
		reg = i & 0xFF ;
		pReg[i] = HDMITX_ReadI2C_Byte(reg) ;
	}
    Switch_HDMITX_Bank(1) ;
   821a8:	01400044 	movi	r5,1
   821ac:	010003c4 	movi	r4,15
   821b0:	0087aa80 	call	87aa8 <HDMITX_WriteI2C_Byte>
	for(reg = 0x30 ; reg < 0xB0 ; i++,reg++)
   821b4:	00800c04 	movi	r2,48
   821b8:	e0bffd05 	stb	r2,-12(fp)
   821bc:	00000d06 	br	821f4 <Get6613Reg+0xb4>
	{
		pReg[i] = HDMITX_ReadI2C_Byte(reg) ;
   821c0:	e0bffc17 	ldw	r2,-16(fp)
   821c4:	e0fffe17 	ldw	r3,-8(fp)
   821c8:	18a1883a 	add	r16,r3,r2
   821cc:	e0bffd03 	ldbu	r2,-12(fp)
   821d0:	1009883a 	mov	r4,r2
   821d4:	0087a640 	call	87a64 <HDMITX_ReadI2C_Byte>
   821d8:	80800005 	stb	r2,0(r16)
	{
		reg = i & 0xFF ;
		pReg[i] = HDMITX_ReadI2C_Byte(reg) ;
	}
    Switch_HDMITX_Bank(1) ;
	for(reg = 0x30 ; reg < 0xB0 ; i++,reg++)
   821dc:	e0bffc17 	ldw	r2,-16(fp)
   821e0:	10800044 	addi	r2,r2,1
   821e4:	e0bffc15 	stw	r2,-16(fp)
   821e8:	e0bffd03 	ldbu	r2,-12(fp)
   821ec:	10800044 	addi	r2,r2,1
   821f0:	e0bffd05 	stb	r2,-12(fp)
   821f4:	e0bffd03 	ldbu	r2,-12(fp)
   821f8:	10802c30 	cmpltui	r2,r2,176
   821fc:	103ff01e 	bne	r2,zero,821c0 <__alt_data_end+0xfffb2300>
	{
		pReg[i] = HDMITX_ReadI2C_Byte(reg) ;
	}
    Switch_HDMITX_Bank(0) ;
   82200:	000b883a 	mov	r5,zero
   82204:	010003c4 	movi	r4,15
   82208:	0087aa80 	call	87aa8 <HDMITX_WriteI2C_Byte>

}
   8220c:	0001883a 	nop
   82210:	e6ffff04 	addi	sp,fp,-4
   82214:	dfc00217 	ldw	ra,8(sp)
   82218:	df000117 	ldw	fp,4(sp)
   8221c:	dc000017 	ldw	r16,0(sp)
   82220:	dec00304 	addi	sp,sp,12
   82224:	f800283a 	ret

00082228 <ProgramDEGenModeByID>:
    // HDES = 574, HDEE = 2494, VDES = 58, VDEE = 1498
    {UNKNOWN_MODE,0xFF,0xFF,0xFF,0xFF,0xFF,0xFF,0xFF,0xFF,0xFF,0xFF}
} ;

BOOL ProgramDEGenModeByID(MODE_ID id,BYTE bInputSignalType)
{
   82228:	defffb04 	addi	sp,sp,-20
   8222c:	dfc00415 	stw	ra,16(sp)
   82230:	df000315 	stw	fp,12(sp)
   82234:	df000304 	addi	fp,sp,12
   82238:	e13ffe15 	stw	r4,-8(fp)
   8223c:	2805883a 	mov	r2,r5
   82240:	e0bfff05 	stb	r2,-4(fp)
    int i ;
    if( (bInputSignalType & (T_MODE_DEGEN|T_MODE_SYNCGEN|T_MODE_SYNCEMB) )==(T_MODE_DEGEN))
   82244:	e0bfff03 	ldbu	r2,-4(fp)
   82248:	10800c8c 	andi	r2,r2,50
   8224c:	10800418 	cmpnei	r2,r2,16
   82250:	1000921e 	bne	r2,zero,8249c <ProgramDEGenModeByID+0x274>
    {
        for( i = 0 ; DeGen_Table[i].id != UNKNOWN_MODE ; i++ )
   82254:	e03ffd15 	stw	zero,-12(fp)
   82258:	00000b06 	br	82288 <ProgramDEGenModeByID+0x60>
        {
            if( id == DeGen_Table[i].id ) break ;
   8225c:	008002b4 	movhi	r2,10
   82260:	10b21404 	addi	r2,r2,-14256
   82264:	e0fffd17 	ldw	r3,-12(fp)
   82268:	1806913a 	slli	r3,r3,4
   8226c:	10c5883a 	add	r2,r2,r3
   82270:	10c00017 	ldw	r3,0(r2)
   82274:	e0bffe17 	ldw	r2,-8(fp)
   82278:	18800b26 	beq	r3,r2,822a8 <ProgramDEGenModeByID+0x80>
BOOL ProgramDEGenModeByID(MODE_ID id,BYTE bInputSignalType)
{
    int i ;
    if( (bInputSignalType & (T_MODE_DEGEN|T_MODE_SYNCGEN|T_MODE_SYNCEMB) )==(T_MODE_DEGEN))
    {
        for( i = 0 ; DeGen_Table[i].id != UNKNOWN_MODE ; i++ )
   8227c:	e0bffd17 	ldw	r2,-12(fp)
   82280:	10800044 	addi	r2,r2,1
   82284:	e0bffd15 	stw	r2,-12(fp)
   82288:	008002b4 	movhi	r2,10
   8228c:	10b21404 	addi	r2,r2,-14256
   82290:	e0fffd17 	ldw	r3,-12(fp)
   82294:	1806913a 	slli	r3,r3,4
   82298:	10c5883a 	add	r2,r2,r3
   8229c:	10800017 	ldw	r2,0(r2)
   822a0:	103fee1e 	bne	r2,zero,8225c <__alt_data_end+0xfffb239c>
   822a4:	00000106 	br	822ac <ProgramDEGenModeByID+0x84>
        {
            if( id == DeGen_Table[i].id ) break ;
   822a8:	0001883a 	nop
        }
        if( DeGen_Table[i].id == UNKNOWN_MODE )
   822ac:	008002b4 	movhi	r2,10
   822b0:	10b21404 	addi	r2,r2,-14256
   822b4:	e0fffd17 	ldw	r3,-12(fp)
   822b8:	1806913a 	slli	r3,r3,4
   822bc:	10c5883a 	add	r2,r2,r3
   822c0:	10800017 	ldw	r2,0(r2)
   822c4:	1000021e 	bne	r2,zero,822d0 <ProgramDEGenModeByID+0xa8>
        {
            return FALSE ;
   822c8:	0005883a 	mov	r2,zero
   822cc:	00007406 	br	824a0 <ProgramDEGenModeByID+0x278>
        }
        
        Switch_HDMITX_Bank(0) ;
   822d0:	000b883a 	mov	r5,zero
   822d4:	010003c4 	movi	r4,15
   822d8:	0087aa80 	call	87aa8 <HDMITX_WriteI2C_Byte>
        HDMITX_WriteI2C_Byte(0x90,DeGen_Table[i].Reg90) ;
   822dc:	008002b4 	movhi	r2,10
   822e0:	10b21404 	addi	r2,r2,-14256
   822e4:	e0fffd17 	ldw	r3,-12(fp)
   822e8:	1806913a 	slli	r3,r3,4
   822ec:	10c5883a 	add	r2,r2,r3
   822f0:	10800104 	addi	r2,r2,4
   822f4:	10800003 	ldbu	r2,0(r2)
   822f8:	10803fcc 	andi	r2,r2,255
   822fc:	100b883a 	mov	r5,r2
   82300:	01002404 	movi	r4,144
   82304:	0087aa80 	call	87aa8 <HDMITX_WriteI2C_Byte>
        HDMITX_WriteI2C_Byte(0x92,DeGen_Table[i].Reg92) ;
   82308:	008002b4 	movhi	r2,10
   8230c:	10b21404 	addi	r2,r2,-14256
   82310:	e0fffd17 	ldw	r3,-12(fp)
   82314:	1806913a 	slli	r3,r3,4
   82318:	10c5883a 	add	r2,r2,r3
   8231c:	10800144 	addi	r2,r2,5
   82320:	10800003 	ldbu	r2,0(r2)
   82324:	10803fcc 	andi	r2,r2,255
   82328:	100b883a 	mov	r5,r2
   8232c:	01002484 	movi	r4,146
   82330:	0087aa80 	call	87aa8 <HDMITX_WriteI2C_Byte>
        HDMITX_WriteI2C_Byte(0x93,DeGen_Table[i].Reg93) ;
   82334:	008002b4 	movhi	r2,10
   82338:	10b21404 	addi	r2,r2,-14256
   8233c:	e0fffd17 	ldw	r3,-12(fp)
   82340:	1806913a 	slli	r3,r3,4
   82344:	10c5883a 	add	r2,r2,r3
   82348:	10800184 	addi	r2,r2,6
   8234c:	10800003 	ldbu	r2,0(r2)
   82350:	10803fcc 	andi	r2,r2,255
   82354:	100b883a 	mov	r5,r2
   82358:	010024c4 	movi	r4,147
   8235c:	0087aa80 	call	87aa8 <HDMITX_WriteI2C_Byte>
        HDMITX_WriteI2C_Byte(0x94,DeGen_Table[i].Reg94) ;
   82360:	008002b4 	movhi	r2,10
   82364:	10b21404 	addi	r2,r2,-14256
   82368:	e0fffd17 	ldw	r3,-12(fp)
   8236c:	1806913a 	slli	r3,r3,4
   82370:	10c5883a 	add	r2,r2,r3
   82374:	108001c4 	addi	r2,r2,7
   82378:	10800003 	ldbu	r2,0(r2)
   8237c:	10803fcc 	andi	r2,r2,255
   82380:	100b883a 	mov	r5,r2
   82384:	01002504 	movi	r4,148
   82388:	0087aa80 	call	87aa8 <HDMITX_WriteI2C_Byte>
        HDMITX_WriteI2C_Byte(0x9A,DeGen_Table[i].Reg9A) ;
   8238c:	008002b4 	movhi	r2,10
   82390:	10b21404 	addi	r2,r2,-14256
   82394:	e0fffd17 	ldw	r3,-12(fp)
   82398:	1806913a 	slli	r3,r3,4
   8239c:	10c5883a 	add	r2,r2,r3
   823a0:	10800204 	addi	r2,r2,8
   823a4:	10800003 	ldbu	r2,0(r2)
   823a8:	10803fcc 	andi	r2,r2,255
   823ac:	100b883a 	mov	r5,r2
   823b0:	01002684 	movi	r4,154
   823b4:	0087aa80 	call	87aa8 <HDMITX_WriteI2C_Byte>
        HDMITX_WriteI2C_Byte(0x9B,DeGen_Table[i].Reg9B) ;
   823b8:	008002b4 	movhi	r2,10
   823bc:	10b21404 	addi	r2,r2,-14256
   823c0:	e0fffd17 	ldw	r3,-12(fp)
   823c4:	1806913a 	slli	r3,r3,4
   823c8:	10c5883a 	add	r2,r2,r3
   823cc:	10800244 	addi	r2,r2,9
   823d0:	10800003 	ldbu	r2,0(r2)
   823d4:	10803fcc 	andi	r2,r2,255
   823d8:	100b883a 	mov	r5,r2
   823dc:	010026c4 	movi	r4,155
   823e0:	0087aa80 	call	87aa8 <HDMITX_WriteI2C_Byte>
        HDMITX_WriteI2C_Byte(0x9C,DeGen_Table[i].Reg9C) ;
   823e4:	008002b4 	movhi	r2,10
   823e8:	10b21404 	addi	r2,r2,-14256
   823ec:	e0fffd17 	ldw	r3,-12(fp)
   823f0:	1806913a 	slli	r3,r3,4
   823f4:	10c5883a 	add	r2,r2,r3
   823f8:	10800284 	addi	r2,r2,10
   823fc:	10800003 	ldbu	r2,0(r2)
   82400:	10803fcc 	andi	r2,r2,255
   82404:	100b883a 	mov	r5,r2
   82408:	01002704 	movi	r4,156
   8240c:	0087aa80 	call	87aa8 <HDMITX_WriteI2C_Byte>
        HDMITX_WriteI2C_Byte(0x9D,DeGen_Table[i].Reg9D) ;
   82410:	008002b4 	movhi	r2,10
   82414:	10b21404 	addi	r2,r2,-14256
   82418:	e0fffd17 	ldw	r3,-12(fp)
   8241c:	1806913a 	slli	r3,r3,4
   82420:	10c5883a 	add	r2,r2,r3
   82424:	108002c4 	addi	r2,r2,11
   82428:	10800003 	ldbu	r2,0(r2)
   8242c:	10803fcc 	andi	r2,r2,255
   82430:	100b883a 	mov	r5,r2
   82434:	01002744 	movi	r4,157
   82438:	0087aa80 	call	87aa8 <HDMITX_WriteI2C_Byte>
        HDMITX_WriteI2C_Byte(0x9E,DeGen_Table[i].Reg9E) ;
   8243c:	008002b4 	movhi	r2,10
   82440:	10b21404 	addi	r2,r2,-14256
   82444:	e0fffd17 	ldw	r3,-12(fp)
   82448:	1806913a 	slli	r3,r3,4
   8244c:	10c5883a 	add	r2,r2,r3
   82450:	10800304 	addi	r2,r2,12
   82454:	10800003 	ldbu	r2,0(r2)
   82458:	10803fcc 	andi	r2,r2,255
   8245c:	100b883a 	mov	r5,r2
   82460:	01002784 	movi	r4,158
   82464:	0087aa80 	call	87aa8 <HDMITX_WriteI2C_Byte>
        HDMITX_WriteI2C_Byte(0x9F,DeGen_Table[i].Reg9F) ;
   82468:	008002b4 	movhi	r2,10
   8246c:	10b21404 	addi	r2,r2,-14256
   82470:	e0fffd17 	ldw	r3,-12(fp)
   82474:	1806913a 	slli	r3,r3,4
   82478:	10c5883a 	add	r2,r2,r3
   8247c:	10800344 	addi	r2,r2,13
   82480:	10800003 	ldbu	r2,0(r2)
   82484:	10803fcc 	andi	r2,r2,255
   82488:	100b883a 	mov	r5,r2
   8248c:	010027c4 	movi	r4,159
   82490:	0087aa80 	call	87aa8 <HDMITX_WriteI2C_Byte>
        return TRUE ;
   82494:	00800044 	movi	r2,1
   82498:	00000106 	br	824a0 <ProgramDEGenModeByID+0x278>
        
    }
    return FALSE ;
   8249c:	0005883a 	mov	r2,zero
}
   824a0:	e037883a 	mov	sp,fp
   824a4:	dfc00117 	ldw	ra,4(sp)
   824a8:	df000017 	ldw	fp,0(sp)
   824ac:	dec00204 	addi	sp,sp,8
   824b0:	f800283a 	ret

000824b4 <ProgramSyncEmbeddedVideoMode>:
    {0xFF,0xFF,0xff,0xFF,0xFF,0xFF,0xFF,0xFF,0xFF,0xFF,0,0}
} ;

BOOL
ProgramSyncEmbeddedVideoMode(BYTE VIC,BYTE bInputSignalType)
{
   824b4:	defffb04 	addi	sp,sp,-20
   824b8:	dfc00415 	stw	ra,16(sp)
   824bc:	df000315 	stw	fp,12(sp)
   824c0:	df000304 	addi	fp,sp,12
   824c4:	2007883a 	mov	r3,r4
   824c8:	2805883a 	mov	r2,r5
   824cc:	e0fffe05 	stb	r3,-8(fp)
   824d0:	e0bfff05 	stb	r2,-4(fp)
    int i ;
    // if Embedded Video,need to generate timing with pattern register

    ErrorF("ProgramSyncEmbeddedVideoMode(%d,%x)\n",VIC,bInputSignalType) ;
   824d4:	e0bffe03 	ldbu	r2,-8(fp)
   824d8:	e0ffff03 	ldbu	r3,-4(fp)
   824dc:	180d883a 	mov	r6,r3
   824e0:	100b883a 	mov	r5,r2
   824e4:	010002b4 	movhi	r4,10
   824e8:	212eaf04 	addi	r4,r4,-17732
   824ec:	00877a40 	call	877a4 <ErrorF>

    if( bInputSignalType & T_MODE_SYNCEMB )
   824f0:	e0bfff03 	ldbu	r2,-4(fp)
   824f4:	1080008c 	andi	r2,r2,2
   824f8:	10008726 	beq	r2,zero,82718 <ProgramSyncEmbeddedVideoMode+0x264>
    {
        for(i = 0 ; SyncEmbTable[i].fmt != 0xFF ; i++)
   824fc:	e03ffd15 	stw	zero,-12(fp)
   82500:	00000c06 	br	82534 <ProgramSyncEmbeddedVideoMode+0x80>
        {
            if(VIC == SyncEmbTable[i].fmt)
   82504:	008002b4 	movhi	r2,10
   82508:	10b35c04 	addi	r2,r2,-12944
   8250c:	e0fffd17 	ldw	r3,-12(fp)
   82510:	18c00524 	muli	r3,r3,20
   82514:	10c5883a 	add	r2,r2,r3
   82518:	10800003 	ldbu	r2,0(r2)
   8251c:	10c03fcc 	andi	r3,r2,255
   82520:	e0bffe03 	ldbu	r2,-8(fp)
   82524:	18800d26 	beq	r3,r2,8255c <ProgramSyncEmbeddedVideoMode+0xa8>

    ErrorF("ProgramSyncEmbeddedVideoMode(%d,%x)\n",VIC,bInputSignalType) ;

    if( bInputSignalType & T_MODE_SYNCEMB )
    {
        for(i = 0 ; SyncEmbTable[i].fmt != 0xFF ; i++)
   82528:	e0bffd17 	ldw	r2,-12(fp)
   8252c:	10800044 	addi	r2,r2,1
   82530:	e0bffd15 	stw	r2,-12(fp)
   82534:	008002b4 	movhi	r2,10
   82538:	10b35c04 	addi	r2,r2,-12944
   8253c:	e0fffd17 	ldw	r3,-12(fp)
   82540:	18c00524 	muli	r3,r3,20
   82544:	10c5883a 	add	r2,r2,r3
   82548:	10800003 	ldbu	r2,0(r2)
   8254c:	10803fcc 	andi	r2,r2,255
   82550:	10803fd8 	cmpnei	r2,r2,255
   82554:	103feb1e 	bne	r2,zero,82504 <__alt_data_end+0xfffb2644>
   82558:	00000106 	br	82560 <ProgramSyncEmbeddedVideoMode+0xac>
        {
            if(VIC == SyncEmbTable[i].fmt)
            {
                break ;
   8255c:	0001883a 	nop
            }
        }
    
        if(SyncEmbTable[i].fmt == 0xFF)
   82560:	008002b4 	movhi	r2,10
   82564:	10b35c04 	addi	r2,r2,-12944
   82568:	e0fffd17 	ldw	r3,-12(fp)
   8256c:	18c00524 	muli	r3,r3,20
   82570:	10c5883a 	add	r2,r2,r3
   82574:	10800003 	ldbu	r2,0(r2)
   82578:	10803fcc 	andi	r2,r2,255
   8257c:	10803fd8 	cmpnei	r2,r2,255
   82580:	1000021e 	bne	r2,zero,8258c <ProgramSyncEmbeddedVideoMode+0xd8>
        {
            return FALSE ;
   82584:	0005883a 	mov	r2,zero
   82588:	00006406 	br	8271c <ProgramSyncEmbeddedVideoMode+0x268>
        }
    
        HDMITX_WriteI2C_Byte(REG_TX_HVPol,SyncEmbTable[i].RegHVPol) ; // Reg90
   8258c:	008002b4 	movhi	r2,10
   82590:	10b35c04 	addi	r2,r2,-12944
   82594:	e0fffd17 	ldw	r3,-12(fp)
   82598:	18c00524 	muli	r3,r3,20
   8259c:	10c5883a 	add	r2,r2,r3
   825a0:	10800044 	addi	r2,r2,1
   825a4:	10800003 	ldbu	r2,0(r2)
   825a8:	10803fcc 	andi	r2,r2,255
   825ac:	100b883a 	mov	r5,r2
   825b0:	01002404 	movi	r4,144
   825b4:	0087aa80 	call	87aa8 <HDMITX_WriteI2C_Byte>
        HDMITX_WriteI2C_Byte(REG_TX_HfPixel,SyncEmbTable[i].RegHfPixel) ; // Reg91
   825b8:	008002b4 	movhi	r2,10
   825bc:	10b35c04 	addi	r2,r2,-12944
   825c0:	e0fffd17 	ldw	r3,-12(fp)
   825c4:	18c00524 	muli	r3,r3,20
   825c8:	10c5883a 	add	r2,r2,r3
   825cc:	10800084 	addi	r2,r2,2
   825d0:	10800003 	ldbu	r2,0(r2)
   825d4:	10803fcc 	andi	r2,r2,255
   825d8:	100b883a 	mov	r5,r2
   825dc:	01002444 	movi	r4,145
   825e0:	0087aa80 	call	87aa8 <HDMITX_WriteI2C_Byte>
    
    	HDMITX_WriteI2C_Byte(REG_TX_HSSL,SyncEmbTable[i].RegHSSL) ; // Reg95
   825e4:	008002b4 	movhi	r2,10
   825e8:	10b35c04 	addi	r2,r2,-12944
   825ec:	e0fffd17 	ldw	r3,-12(fp)
   825f0:	18c00524 	muli	r3,r3,20
   825f4:	10c5883a 	add	r2,r2,r3
   825f8:	108000c4 	addi	r2,r2,3
   825fc:	10800003 	ldbu	r2,0(r2)
   82600:	10803fcc 	andi	r2,r2,255
   82604:	100b883a 	mov	r5,r2
   82608:	01002544 	movi	r4,149
   8260c:	0087aa80 	call	87aa8 <HDMITX_WriteI2C_Byte>
    	HDMITX_WriteI2C_Byte(REG_TX_HSEL,SyncEmbTable[i].RegHSEL) ; // Reg96
   82610:	008002b4 	movhi	r2,10
   82614:	10b35c04 	addi	r2,r2,-12944
   82618:	e0fffd17 	ldw	r3,-12(fp)
   8261c:	18c00524 	muli	r3,r3,20
   82620:	10c5883a 	add	r2,r2,r3
   82624:	10800104 	addi	r2,r2,4
   82628:	10800003 	ldbu	r2,0(r2)
   8262c:	10803fcc 	andi	r2,r2,255
   82630:	100b883a 	mov	r5,r2
   82634:	01002584 	movi	r4,150
   82638:	0087aa80 	call	87aa8 <HDMITX_WriteI2C_Byte>
    	HDMITX_WriteI2C_Byte(REG_TX_HSH,SyncEmbTable[i].RegHSH) ; // Reg97
   8263c:	008002b4 	movhi	r2,10
   82640:	10b35c04 	addi	r2,r2,-12944
   82644:	e0fffd17 	ldw	r3,-12(fp)
   82648:	18c00524 	muli	r3,r3,20
   8264c:	10c5883a 	add	r2,r2,r3
   82650:	10800144 	addi	r2,r2,5
   82654:	10800003 	ldbu	r2,0(r2)
   82658:	10803fcc 	andi	r2,r2,255
   8265c:	100b883a 	mov	r5,r2
   82660:	010025c4 	movi	r4,151
   82664:	0087aa80 	call	87aa8 <HDMITX_WriteI2C_Byte>
        HDMITX_WriteI2C_Byte(REG_TX_VSS1,SyncEmbTable[i].RegVSS1) ; // RegA0
   82668:	008002b4 	movhi	r2,10
   8266c:	10b35c04 	addi	r2,r2,-12944
   82670:	e0fffd17 	ldw	r3,-12(fp)
   82674:	18c00524 	muli	r3,r3,20
   82678:	10c5883a 	add	r2,r2,r3
   8267c:	10800184 	addi	r2,r2,6
   82680:	10800003 	ldbu	r2,0(r2)
   82684:	10803fcc 	andi	r2,r2,255
   82688:	100b883a 	mov	r5,r2
   8268c:	01002804 	movi	r4,160
   82690:	0087aa80 	call	87aa8 <HDMITX_WriteI2C_Byte>
        HDMITX_WriteI2C_Byte(REG_TX_VSE1,SyncEmbTable[i].RegVSE1) ; // RegA1
   82694:	008002b4 	movhi	r2,10
   82698:	10b35c04 	addi	r2,r2,-12944
   8269c:	e0fffd17 	ldw	r3,-12(fp)
   826a0:	18c00524 	muli	r3,r3,20
   826a4:	10c5883a 	add	r2,r2,r3
   826a8:	108001c4 	addi	r2,r2,7
   826ac:	10800003 	ldbu	r2,0(r2)
   826b0:	10803fcc 	andi	r2,r2,255
   826b4:	100b883a 	mov	r5,r2
   826b8:	01002844 	movi	r4,161
   826bc:	0087aa80 	call	87aa8 <HDMITX_WriteI2C_Byte>
    
        HDMITX_WriteI2C_Byte(REG_TX_VSS2,SyncEmbTable[i].RegVSS2) ; // RegA2
   826c0:	008002b4 	movhi	r2,10
   826c4:	10b35c04 	addi	r2,r2,-12944
   826c8:	e0fffd17 	ldw	r3,-12(fp)
   826cc:	18c00524 	muli	r3,r3,20
   826d0:	10c5883a 	add	r2,r2,r3
   826d4:	10800204 	addi	r2,r2,8
   826d8:	10800003 	ldbu	r2,0(r2)
   826dc:	10803fcc 	andi	r2,r2,255
   826e0:	100b883a 	mov	r5,r2
   826e4:	01002884 	movi	r4,162
   826e8:	0087aa80 	call	87aa8 <HDMITX_WriteI2C_Byte>
        HDMITX_WriteI2C_Byte(REG_TX_VSE2,SyncEmbTable[i].RegVSE2) ; // RegA3
   826ec:	008002b4 	movhi	r2,10
   826f0:	10b35c04 	addi	r2,r2,-12944
   826f4:	e0fffd17 	ldw	r3,-12(fp)
   826f8:	18c00524 	muli	r3,r3,20
   826fc:	10c5883a 	add	r2,r2,r3
   82700:	10800244 	addi	r2,r2,9
   82704:	10800003 	ldbu	r2,0(r2)
   82708:	10803fcc 	andi	r2,r2,255
   8270c:	100b883a 	mov	r5,r2
   82710:	010028c4 	movi	r4,163
   82714:	0087aa80 	call	87aa8 <HDMITX_WriteI2C_Byte>
    }

    return TRUE ;
   82718:	00800044 	movi	r2,1
}
   8271c:	e037883a 	mov	sp,fp
   82720:	dfc00117 	ldw	ra,4(sp)
   82724:	df000017 	ldw	fp,0(sp)
   82728:	dec00204 	addi	sp,sp,8
   8272c:	f800283a 	ret

00082730 <SetInputMode>:
// Side-Effect: Reg70.
//////////////////////////////////////////////////////////////////////

static void
SetInputMode(BYTE InputMode,BYTE bInputSignalType)
{
   82730:	defffb04 	addi	sp,sp,-20
   82734:	dfc00415 	stw	ra,16(sp)
   82738:	df000315 	stw	fp,12(sp)
   8273c:	df000304 	addi	fp,sp,12
   82740:	2007883a 	mov	r3,r4
   82744:	2805883a 	mov	r2,r5
   82748:	e0fffe05 	stb	r3,-8(fp)
   8274c:	e0bfff05 	stb	r2,-4(fp)
    BYTE ucData ;

    ErrorF("SetInputMode(%02X,%02X)\n",InputMode,bInputSignalType) ;
   82750:	e0bffe03 	ldbu	r2,-8(fp)
   82754:	e0ffff03 	ldbu	r3,-4(fp)
   82758:	180d883a 	mov	r6,r3
   8275c:	100b883a 	mov	r5,r2
   82760:	010002b4 	movhi	r4,10
   82764:	212eb904 	addi	r4,r4,-17692
   82768:	00877a40 	call	877a4 <ErrorF>

    ucData = HDMITX_ReadI2C_Byte(REG_TX_INPUT_MODE) ;
   8276c:	01001c04 	movi	r4,112
   82770:	0087a640 	call	87a64 <HDMITX_ReadI2C_Byte>
   82774:	e0bffd05 	stb	r2,-12(fp)

    ucData &= ~(M_INCOLMOD|B_2X656CLK|B_SYNCEMB|B_INDDR|B_PCLKDIV2) ;
   82778:	e0bffd03 	ldbu	r2,-12(fp)
   8277c:	108000cc 	andi	r2,r2,3
   82780:	e0bffd05 	stb	r2,-12(fp)

    switch(InputMode & F_MODE_CLRMOD_MASK)
   82784:	e0bffe03 	ldbu	r2,-8(fp)
   82788:	108000cc 	andi	r2,r2,3
   8278c:	10c00060 	cmpeqi	r3,r2,1
   82790:	1800031e 	bne	r3,zero,827a0 <SetInputMode+0x70>
   82794:	108000a0 	cmpeqi	r2,r2,2
   82798:	1000051e 	bne	r2,zero,827b0 <SetInputMode+0x80>
        ucData |= B_IN_YUV444 ;
        break ;
    case F_MODE_RGB444:
    default:
        ucData |= B_IN_RGB ;
        break ;
   8279c:	00000906 	br	827c4 <SetInputMode+0x94>
    ucData &= ~(M_INCOLMOD|B_2X656CLK|B_SYNCEMB|B_INDDR|B_PCLKDIV2) ;

    switch(InputMode & F_MODE_CLRMOD_MASK)
    {
    case F_MODE_YUV422:
        ucData |= B_IN_YUV422 ;
   827a0:	e0bffd03 	ldbu	r2,-12(fp)
   827a4:	10801014 	ori	r2,r2,64
   827a8:	e0bffd05 	stb	r2,-12(fp)
        break ;
   827ac:	00000506 	br	827c4 <SetInputMode+0x94>
    case F_MODE_YUV444:
        ucData |= B_IN_YUV444 ;
   827b0:	e0fffd03 	ldbu	r3,-12(fp)
   827b4:	00bfe004 	movi	r2,-128
   827b8:	1884b03a 	or	r2,r3,r2
   827bc:	e0bffd05 	stb	r2,-12(fp)
        break ;
   827c0:	0001883a 	nop
    default:
        ucData |= B_IN_RGB ;
        break ;
    }

    if(bInputSignalType & T_MODE_PCLKDIV2)
   827c4:	e0bfff03 	ldbu	r2,-4(fp)
   827c8:	1080020c 	andi	r2,r2,8
   827cc:	10000626 	beq	r2,zero,827e8 <SetInputMode+0xb8>
    {
        ucData |= B_PCLKDIV2 ; ErrorF("PCLK Divided by 2 mode\n") ;
   827d0:	e0bffd03 	ldbu	r2,-12(fp)
   827d4:	10800814 	ori	r2,r2,32
   827d8:	e0bffd05 	stb	r2,-12(fp)
   827dc:	010002b4 	movhi	r4,10
   827e0:	212ec004 	addi	r4,r4,-17664
   827e4:	00877a40 	call	877a4 <ErrorF>
    }
    if(bInputSignalType & T_MODE_CCIR656)
   827e8:	e0bfff03 	ldbu	r2,-4(fp)
   827ec:	1080004c 	andi	r2,r2,1
   827f0:	10000626 	beq	r2,zero,8280c <SetInputMode+0xdc>
    {
        ucData |= B_2X656CLK ; ErrorF("CCIR656 mode\n") ;
   827f4:	e0bffd03 	ldbu	r2,-12(fp)
   827f8:	10800414 	ori	r2,r2,16
   827fc:	e0bffd05 	stb	r2,-12(fp)
   82800:	010002b4 	movhi	r4,10
   82804:	212ec604 	addi	r4,r4,-17640
   82808:	00877a40 	call	877a4 <ErrorF>
    }

    if(bInputSignalType & T_MODE_SYNCEMB)
   8280c:	e0bfff03 	ldbu	r2,-4(fp)
   82810:	1080008c 	andi	r2,r2,2
   82814:	10000626 	beq	r2,zero,82830 <SetInputMode+0x100>
    {
        ucData |= B_SYNCEMB ; ErrorF("Sync Embedded mode\n") ;
   82818:	e0bffd03 	ldbu	r2,-12(fp)
   8281c:	10800214 	ori	r2,r2,8
   82820:	e0bffd05 	stb	r2,-12(fp)
   82824:	010002b4 	movhi	r4,10
   82828:	212eca04 	addi	r4,r4,-17624
   8282c:	00877a40 	call	877a4 <ErrorF>
    }

    if(bInputSignalType & T_MODE_INDDR)
   82830:	e0bfff03 	ldbu	r2,-4(fp)
   82834:	1080010c 	andi	r2,r2,4
   82838:	10000626 	beq	r2,zero,82854 <SetInputMode+0x124>
    {
        ucData |= B_INDDR ; ErrorF("Input DDR mode\n") ;
   8283c:	e0bffd03 	ldbu	r2,-12(fp)
   82840:	10800114 	ori	r2,r2,4
   82844:	e0bffd05 	stb	r2,-12(fp)
   82848:	010002b4 	movhi	r4,10
   8284c:	212ecf04 	addi	r4,r4,-17604
   82850:	00877a40 	call	877a4 <ErrorF>
    }

    HDMITX_WriteI2C_Byte(REG_TX_INPUT_MODE,ucData) ;
   82854:	e0bffd03 	ldbu	r2,-12(fp)
   82858:	100b883a 	mov	r5,r2
   8285c:	01001c04 	movi	r4,112
   82860:	0087aa80 	call	87aa8 <HDMITX_WriteI2C_Byte>
}
   82864:	0001883a 	nop
   82868:	e037883a 	mov	sp,fp
   8286c:	dfc00117 	ldw	ra,4(sp)
   82870:	df000017 	ldw	fp,0(sp)
   82874:	dec00204 	addi	sp,sp,8
   82878:	f800283a 	ret

0008287c <SetCSCScale>:
// Side-Effect:
//////////////////////////////////////////////////////////////////////

static void
SetCSCScale(BYTE bInputMode,BYTE bOutputMode)
{
   8287c:	defffb04 	addi	sp,sp,-20
   82880:	dfc00415 	stw	ra,16(sp)
   82884:	df000315 	stw	fp,12(sp)
   82888:	df000304 	addi	fp,sp,12
   8288c:	2007883a 	mov	r3,r4
   82890:	2805883a 	mov	r2,r5
   82894:	e0fffe05 	stb	r3,-8(fp)
   82898:	e0bfff05 	stb	r2,-4(fp)
    BYTE ucData,csc ;
    BYTE filter = 0 ; // filter is for Video CTRL DN_FREE_GO,EN_DITHER,and ENUDFILT
   8289c:	e03ffd45 	stb	zero,-11(fp)
	// (2) YUV444/422  in,RGB output (CSC enable,and output is not YUV422)
	// (3) RGB in,YUV444 output   (CSC enable,and output is not YUV422)
    //
    // YUV444/RGB24 <-> YUV422 need set up/down filter.

    switch(bInputMode&F_MODE_CLRMOD_MASK)
   828a0:	e0bffe03 	ldbu	r2,-8(fp)
   828a4:	108000cc 	andi	r2,r2,3
   828a8:	10c00060 	cmpeqi	r3,r2,1
   828ac:	18002f1e 	bne	r3,zero,8296c <SetCSCScale+0xf0>
   828b0:	10c000a0 	cmpeqi	r3,r2,2
   828b4:	1800021e 	bne	r3,zero,828c0 <SetCSCScale+0x44>
   828b8:	10006926 	beq	r2,zero,82a60 <SetCSCScale+0x1e4>
   828bc:	00009e06 	br	82b38 <SetCSCScale+0x2bc>
    {
    #ifdef SUPPORT_INPUTYUV444
    case F_MODE_YUV444:
        ErrorF("Input mode is YUV444 ") ;
   828c0:	010002b4 	movhi	r4,10
   828c4:	212ed304 	addi	r4,r4,-17588
   828c8:	00877a40 	call	877a4 <ErrorF>
        switch(bOutputMode&F_MODE_CLRMOD_MASK)
   828cc:	e0bfff03 	ldbu	r2,-4(fp)
   828d0:	108000cc 	andi	r2,r2,3
   828d4:	10c00060 	cmpeqi	r3,r2,1
   828d8:	1800091e 	bne	r3,zero,82900 <SetCSCScale+0x84>
   828dc:	10c000a0 	cmpeqi	r3,r2,2
   828e0:	1800021e 	bne	r3,zero,828ec <SetCSCScale+0x70>
   828e4:	10001126 	beq	r2,zero,8292c <SetCSCScale+0xb0>
                filter |= B_TX_EN_DITHER | B_TX_DNFREE_GO ;
            }

            break ;
        }
        break ;
   828e8:	00009306 	br	82b38 <SetCSCScale+0x2bc>
    case F_MODE_YUV444:
        ErrorF("Input mode is YUV444 ") ;
        switch(bOutputMode&F_MODE_CLRMOD_MASK)
        {
        case F_MODE_YUV444:
            ErrorF("Output mode is YUV444\n") ;
   828ec:	010002b4 	movhi	r4,10
   828f0:	212ed904 	addi	r4,r4,-17564
   828f4:	00877a40 	call	877a4 <ErrorF>
            csc = B_CSC_BYPASS ;
   828f8:	e03ffd05 	stb	zero,-12(fp)
            break ;
   828fc:	00001a06 	br	82968 <SetCSCScale+0xec>

        case F_MODE_YUV422:
            ErrorF("Output mode is YUV422\n") ;
   82900:	010002b4 	movhi	r4,10
   82904:	212edf04 	addi	r4,r4,-17540
   82908:	00877a40 	call	877a4 <ErrorF>
            if(bInputMode & F_MODE_EN_UDFILT) // YUV444 to YUV422 need up/down filter for processing.
   8290c:	e0bffe03 	ldbu	r2,-8(fp)
   82910:	1080100c 	andi	r2,r2,64
   82914:	10000326 	beq	r2,zero,82924 <SetCSCScale+0xa8>
            {
                filter |= B_TX_EN_UDFILTER ;
   82918:	e0bffd43 	ldbu	r2,-11(fp)
   8291c:	10801014 	ori	r2,r2,64
   82920:	e0bffd45 	stb	r2,-11(fp)
            }
            csc = B_CSC_BYPASS ;
   82924:	e03ffd05 	stb	zero,-12(fp)
            break ;
   82928:	00000f06 	br	82968 <SetCSCScale+0xec>
        case F_MODE_RGB444:
            ErrorF("Output mode is RGB24\n") ;
   8292c:	010002b4 	movhi	r4,10
   82930:	212ee504 	addi	r4,r4,-17516
   82934:	00877a40 	call	877a4 <ErrorF>
            csc = B_CSC_YUV2RGB ;
   82938:	008000c4 	movi	r2,3
   8293c:	e0bffd05 	stb	r2,-12(fp)
            if(bInputMode & F_MODE_EN_DITHER) // YUV444 to RGB24 need dither
   82940:	e0bffe03 	ldbu	r2,-8(fp)
   82944:	10803fcc 	andi	r2,r2,255
   82948:	1080201c 	xori	r2,r2,128
   8294c:	10bfe004 	addi	r2,r2,-128
   82950:	1000040e 	bge	r2,zero,82964 <SetCSCScale+0xe8>
            {
                filter |= B_TX_EN_DITHER | B_TX_DNFREE_GO ;
   82954:	e0fffd43 	ldbu	r3,-11(fp)
   82958:	00bfe804 	movi	r2,-96
   8295c:	1884b03a 	or	r2,r3,r2
   82960:	e0bffd45 	stb	r2,-11(fp)
            }

            break ;
   82964:	0001883a 	nop
        }
        break ;
   82968:	00007306 	br	82b38 <SetCSCScale+0x2bc>
    #endif

    #ifdef SUPPORT_INPUTYUV422
    case F_MODE_YUV422:
        ErrorF("Input mode is YUV422\n") ;
   8296c:	010002b4 	movhi	r4,10
   82970:	212eeb04 	addi	r4,r4,-17492
   82974:	00877a40 	call	877a4 <ErrorF>
        switch(bOutputMode&F_MODE_CLRMOD_MASK)
   82978:	e0bfff03 	ldbu	r2,-4(fp)
   8297c:	108000cc 	andi	r2,r2,3
   82980:	10c00060 	cmpeqi	r3,r2,1
   82984:	1800181e 	bne	r3,zero,829e8 <SetCSCScale+0x16c>
   82988:	10c000a0 	cmpeqi	r3,r2,2
   8298c:	1800021e 	bne	r3,zero,82998 <SetCSCScale+0x11c>
   82990:	10001a26 	beq	r2,zero,829fc <SetCSCScale+0x180>
                filter |= B_TX_EN_DITHER | B_TX_DNFREE_GO ;
            }

            break ;
        }
        break ;
   82994:	00006806 	br	82b38 <SetCSCScale+0x2bc>
    case F_MODE_YUV422:
        ErrorF("Input mode is YUV422\n") ;
        switch(bOutputMode&F_MODE_CLRMOD_MASK)
        {
        case F_MODE_YUV444:
            ErrorF("Output mode is YUV444\n") ;
   82998:	010002b4 	movhi	r4,10
   8299c:	212ed904 	addi	r4,r4,-17564
   829a0:	00877a40 	call	877a4 <ErrorF>
            csc = B_CSC_BYPASS ;
   829a4:	e03ffd05 	stb	zero,-12(fp)
            if(bInputMode & F_MODE_EN_UDFILT) // YUV422 to YUV444 need up filter
   829a8:	e0bffe03 	ldbu	r2,-8(fp)
   829ac:	1080100c 	andi	r2,r2,64
   829b0:	10000326 	beq	r2,zero,829c0 <SetCSCScale+0x144>
            {
                filter |= B_TX_EN_UDFILTER ;
   829b4:	e0bffd43 	ldbu	r2,-11(fp)
   829b8:	10801014 	ori	r2,r2,64
   829bc:	e0bffd45 	stb	r2,-11(fp)
            }

            if(bInputMode & F_MODE_EN_DITHER) // YUV422 to YUV444 need dither
   829c0:	e0bffe03 	ldbu	r2,-8(fp)
   829c4:	10803fcc 	andi	r2,r2,255
   829c8:	1080201c 	xori	r2,r2,128
   829cc:	10bfe004 	addi	r2,r2,-128
   829d0:	10001f0e 	bge	r2,zero,82a50 <SetCSCScale+0x1d4>
            {
                filter |= B_TX_EN_DITHER | B_TX_DNFREE_GO ;
   829d4:	e0fffd43 	ldbu	r3,-11(fp)
   829d8:	00bfe804 	movi	r2,-96
   829dc:	1884b03a 	or	r2,r3,r2
   829e0:	e0bffd45 	stb	r2,-11(fp)
            }

            break ;
   829e4:	00001a06 	br	82a50 <SetCSCScale+0x1d4>
        case F_MODE_YUV422:
            ErrorF("Output mode is YUV422\n") ;
   829e8:	010002b4 	movhi	r4,10
   829ec:	212edf04 	addi	r4,r4,-17540
   829f0:	00877a40 	call	877a4 <ErrorF>
            csc = B_CSC_BYPASS ;
   829f4:	e03ffd05 	stb	zero,-12(fp)

            break ;
   829f8:	00001806 	br	82a5c <SetCSCScale+0x1e0>

        case F_MODE_RGB444:
            ErrorF("Output mode is RGB24\n") ;
   829fc:	010002b4 	movhi	r4,10
   82a00:	212ee504 	addi	r4,r4,-17516
   82a04:	00877a40 	call	877a4 <ErrorF>
            csc = B_CSC_YUV2RGB ;
   82a08:	008000c4 	movi	r2,3
   82a0c:	e0bffd05 	stb	r2,-12(fp)
            if(bInputMode & F_MODE_EN_UDFILT) // YUV422 to RGB24 need up/dn filter.
   82a10:	e0bffe03 	ldbu	r2,-8(fp)
   82a14:	1080100c 	andi	r2,r2,64
   82a18:	10000326 	beq	r2,zero,82a28 <SetCSCScale+0x1ac>
            {
                filter |= B_TX_EN_UDFILTER ;
   82a1c:	e0bffd43 	ldbu	r2,-11(fp)
   82a20:	10801014 	ori	r2,r2,64
   82a24:	e0bffd45 	stb	r2,-11(fp)
            }

            if(bInputMode & F_MODE_EN_DITHER) // YUV422 to RGB24 need dither
   82a28:	e0bffe03 	ldbu	r2,-8(fp)
   82a2c:	10803fcc 	andi	r2,r2,255
   82a30:	1080201c 	xori	r2,r2,128
   82a34:	10bfe004 	addi	r2,r2,-128
   82a38:	1000070e 	bge	r2,zero,82a58 <SetCSCScale+0x1dc>
            {
                filter |= B_TX_EN_DITHER | B_TX_DNFREE_GO ;
   82a3c:	e0fffd43 	ldbu	r3,-11(fp)
   82a40:	00bfe804 	movi	r2,-96
   82a44:	1884b03a 	or	r2,r3,r2
   82a48:	e0bffd45 	stb	r2,-11(fp)
            }

            break ;
   82a4c:	00000206 	br	82a58 <SetCSCScale+0x1dc>
            if(bInputMode & F_MODE_EN_DITHER) // YUV422 to YUV444 need dither
            {
                filter |= B_TX_EN_DITHER | B_TX_DNFREE_GO ;
            }

            break ;
   82a50:	0001883a 	nop
   82a54:	00003806 	br	82b38 <SetCSCScale+0x2bc>
            if(bInputMode & F_MODE_EN_DITHER) // YUV422 to RGB24 need dither
            {
                filter |= B_TX_EN_DITHER | B_TX_DNFREE_GO ;
            }

            break ;
   82a58:	0001883a 	nop
        }
        break ;
   82a5c:	00003606 	br	82b38 <SetCSCScale+0x2bc>
    #endif

    #ifdef SUPPORT_INPUTRGB
    case F_MODE_RGB444:
        ErrorF("Input mode is RGB24\n") ;
   82a60:	010002b4 	movhi	r4,10
   82a64:	212ef104 	addi	r4,r4,-17468
   82a68:	00877a40 	call	877a4 <ErrorF>
        switch(bOutputMode&F_MODE_CLRMOD_MASK)
   82a6c:	e0bfff03 	ldbu	r2,-4(fp)
   82a70:	108000cc 	andi	r2,r2,3
   82a74:	10c00060 	cmpeqi	r3,r2,1
   82a78:	1800131e 	bne	r3,zero,82ac8 <SetCSCScale+0x24c>
   82a7c:	10c000a0 	cmpeqi	r3,r2,2
   82a80:	1800021e 	bne	r3,zero,82a8c <SetCSCScale+0x210>
   82a84:	10002526 	beq	r2,zero,82b1c <SetCSCScale+0x2a0>
        case F_MODE_RGB444:
            ErrorF("Output mode is RGB24\n") ;
            csc = B_CSC_BYPASS ;
            break ;
        }
        break ;
   82a88:	00002a06 	br	82b34 <SetCSCScale+0x2b8>
    case F_MODE_RGB444:
        ErrorF("Input mode is RGB24\n") ;
        switch(bOutputMode&F_MODE_CLRMOD_MASK)
        {
        case F_MODE_YUV444:
            ErrorF("Output mode is YUV444\n") ;
   82a8c:	010002b4 	movhi	r4,10
   82a90:	212ed904 	addi	r4,r4,-17564
   82a94:	00877a40 	call	877a4 <ErrorF>
            csc = B_CSC_RGB2YUV ;
   82a98:	00800084 	movi	r2,2
   82a9c:	e0bffd05 	stb	r2,-12(fp)

            if(bInputMode & F_MODE_EN_DITHER) // RGB24 to YUV444 need dither
   82aa0:	e0bffe03 	ldbu	r2,-8(fp)
   82aa4:	10803fcc 	andi	r2,r2,255
   82aa8:	1080201c 	xori	r2,r2,128
   82aac:	10bfe004 	addi	r2,r2,-128
   82ab0:	10001f0e 	bge	r2,zero,82b30 <SetCSCScale+0x2b4>
            {
                filter |= B_TX_EN_DITHER | B_TX_DNFREE_GO ;
   82ab4:	e0fffd43 	ldbu	r3,-11(fp)
   82ab8:	00bfe804 	movi	r2,-96
   82abc:	1884b03a 	or	r2,r3,r2
   82ac0:	e0bffd45 	stb	r2,-11(fp)
            }
            break ;
   82ac4:	00001a06 	br	82b30 <SetCSCScale+0x2b4>

        case F_MODE_YUV422:
            ErrorF("Output mode is YUV422\n") ;
   82ac8:	010002b4 	movhi	r4,10
   82acc:	212edf04 	addi	r4,r4,-17540
   82ad0:	00877a40 	call	877a4 <ErrorF>
            if(bInputMode & F_MODE_EN_UDFILT) // RGB24 to YUV422 need down filter.
   82ad4:	e0bffe03 	ldbu	r2,-8(fp)
   82ad8:	1080100c 	andi	r2,r2,64
   82adc:	10000326 	beq	r2,zero,82aec <SetCSCScale+0x270>
            {
                filter |= B_TX_EN_UDFILTER ;
   82ae0:	e0bffd43 	ldbu	r2,-11(fp)
   82ae4:	10801014 	ori	r2,r2,64
   82ae8:	e0bffd45 	stb	r2,-11(fp)
            }

            if(bInputMode & F_MODE_EN_DITHER) // RGB24 to YUV422 need dither
   82aec:	e0bffe03 	ldbu	r2,-8(fp)
   82af0:	10803fcc 	andi	r2,r2,255
   82af4:	1080201c 	xori	r2,r2,128
   82af8:	10bfe004 	addi	r2,r2,-128
   82afc:	1000040e 	bge	r2,zero,82b10 <SetCSCScale+0x294>
            {
                filter |= B_TX_EN_DITHER | B_TX_DNFREE_GO ;
   82b00:	e0fffd43 	ldbu	r3,-11(fp)
   82b04:	00bfe804 	movi	r2,-96
   82b08:	1884b03a 	or	r2,r3,r2
   82b0c:	e0bffd45 	stb	r2,-11(fp)
            }
            csc = B_CSC_RGB2YUV ;
   82b10:	00800084 	movi	r2,2
   82b14:	e0bffd05 	stb	r2,-12(fp)
            break ;
   82b18:	00000606 	br	82b34 <SetCSCScale+0x2b8>

        case F_MODE_RGB444:
            ErrorF("Output mode is RGB24\n") ;
   82b1c:	010002b4 	movhi	r4,10
   82b20:	212ee504 	addi	r4,r4,-17516
   82b24:	00877a40 	call	877a4 <ErrorF>
            csc = B_CSC_BYPASS ;
   82b28:	e03ffd05 	stb	zero,-12(fp)
            break ;
   82b2c:	00000106 	br	82b34 <SetCSCScale+0x2b8>

            if(bInputMode & F_MODE_EN_DITHER) // RGB24 to YUV444 need dither
            {
                filter |= B_TX_EN_DITHER | B_TX_DNFREE_GO ;
            }
            break ;
   82b30:	0001883a 	nop
        case F_MODE_RGB444:
            ErrorF("Output mode is RGB24\n") ;
            csc = B_CSC_BYPASS ;
            break ;
        }
        break ;
   82b34:	0001883a 	nop
    #endif
    }

    #ifdef SUPPORT_INPUTRGB
    // set the CSC metrix registers by colorimetry and quantization
    if(csc == B_CSC_RGB2YUV)
   82b38:	e0bffd03 	ldbu	r2,-12(fp)
   82b3c:	10800098 	cmpnei	r2,r2,2
   82b40:	1000421e 	bne	r2,zero,82c4c <SetCSCScale+0x3d0>
    {
        ErrorF("CSC = RGB2YUV %x ",csc) ;
   82b44:	e0bffd03 	ldbu	r2,-12(fp)
   82b48:	100b883a 	mov	r5,r2
   82b4c:	010002b4 	movhi	r4,10
   82b50:	212ef704 	addi	r4,r4,-17444
   82b54:	00877a40 	call	877a4 <ErrorF>
        switch(bInputMode&(F_MODE_ITU709|F_MODE_16_235))
   82b58:	e0bffe03 	ldbu	r2,-8(fp)
   82b5c:	10800c0c 	andi	r2,r2,48
   82b60:	10c00820 	cmpeqi	r3,r2,32
   82b64:	18001f1e 	bne	r3,zero,82be4 <SetCSCScale+0x368>
   82b68:	10c00c20 	cmpeqi	r3,r2,48
   82b6c:	1800031e 	bne	r3,zero,82b7c <SetCSCScale+0x300>
   82b70:	10800420 	cmpeqi	r2,r2,16
   82b74:	10000e1e 	bne	r2,zero,82bb0 <SetCSCScale+0x334>
   82b78:	00002706 	br	82c18 <SetCSCScale+0x39c>
        {
        case F_MODE_ITU709|F_MODE_16_235:
            ErrorF("ITU709 16-235 ") ;
   82b7c:	010002b4 	movhi	r4,10
   82b80:	212efc04 	addi	r4,r4,-17424
   82b84:	00877a40 	call	877a4 <ErrorF>
            HDMITX_WriteI2C_ByteN(REG_TX_CSC_YOFF,bCSCOffset_16_235,SIZEOF_CSCOFFSET) ;
   82b88:	018000c4 	movi	r6,3
   82b8c:	d1600004 	addi	r5,gp,-32768
   82b90:	01001cc4 	movi	r4,115
   82b94:	0087ba80 	call	87ba8 <HDMITX_WriteI2C_ByteN>
            HDMITX_WriteI2C_ByteN(REG_TX_CSC_MTX11_L,bCSCMtx_RGB2YUV_ITU709_16_235,SIZEOF_CSCMTX) ;
   82b98:	01800484 	movi	r6,18
   82b9c:	014002b4 	movhi	r5,10
   82ba0:	2971f904 	addi	r5,r5,-14364
   82ba4:	01001d84 	movi	r4,118
   82ba8:	0087ba80 	call	87ba8 <HDMITX_WriteI2C_ByteN>
            break ;
   82bac:	00002706 	br	82c4c <SetCSCScale+0x3d0>
        case F_MODE_ITU709|F_MODE_0_255:
            ErrorF("ITU709 0-255 ") ;
   82bb0:	010002b4 	movhi	r4,10
   82bb4:	212f0004 	addi	r4,r4,-17408
   82bb8:	00877a40 	call	877a4 <ErrorF>
            HDMITX_WriteI2C_ByteN(REG_TX_CSC_YOFF,bCSCOffset_0_255,SIZEOF_CSCOFFSET) ;
   82bbc:	018000c4 	movi	r6,3
   82bc0:	d16000c4 	addi	r5,gp,-32765
   82bc4:	01001cc4 	movi	r4,115
   82bc8:	0087ba80 	call	87ba8 <HDMITX_WriteI2C_ByteN>
            HDMITX_WriteI2C_ByteN(REG_TX_CSC_MTX11_L,bCSCMtx_RGB2YUV_ITU709_0_255,SIZEOF_CSCMTX) ;
   82bcc:	01800484 	movi	r6,18
   82bd0:	014002b4 	movhi	r5,10
   82bd4:	2971fd84 	addi	r5,r5,-14346
   82bd8:	01001d84 	movi	r4,118
   82bdc:	0087ba80 	call	87ba8 <HDMITX_WriteI2C_ByteN>
            break ;
   82be0:	00001a06 	br	82c4c <SetCSCScale+0x3d0>
        case F_MODE_ITU601|F_MODE_16_235:
            ErrorF("ITU601 16-235 ") ;
   82be4:	010002b4 	movhi	r4,10
   82be8:	212f0404 	addi	r4,r4,-17392
   82bec:	00877a40 	call	877a4 <ErrorF>
            HDMITX_WriteI2C_ByteN(REG_TX_CSC_YOFF,bCSCOffset_16_235,SIZEOF_CSCOFFSET) ;
   82bf0:	018000c4 	movi	r6,3
   82bf4:	d1600004 	addi	r5,gp,-32768
   82bf8:	01001cc4 	movi	r4,115
   82bfc:	0087ba80 	call	87ba8 <HDMITX_WriteI2C_ByteN>
            HDMITX_WriteI2C_ByteN(REG_TX_CSC_MTX11_L,bCSCMtx_RGB2YUV_ITU601_16_235,SIZEOF_CSCMTX) ;
   82c00:	01800484 	movi	r6,18
   82c04:	014002b4 	movhi	r5,10
   82c08:	2971f004 	addi	r5,r5,-14400
   82c0c:	01001d84 	movi	r4,118
   82c10:	0087ba80 	call	87ba8 <HDMITX_WriteI2C_ByteN>
            break ;
   82c14:	00000d06 	br	82c4c <SetCSCScale+0x3d0>
        case F_MODE_ITU601|F_MODE_0_255:
        default:
            ErrorF("ITU601 0-255 ") ;
   82c18:	010002b4 	movhi	r4,10
   82c1c:	212f0804 	addi	r4,r4,-17376
   82c20:	00877a40 	call	877a4 <ErrorF>
            
            HDMITX_WriteI2C_ByteN(REG_TX_CSC_YOFF,bCSCOffset_0_255,SIZEOF_CSCOFFSET) ;
   82c24:	018000c4 	movi	r6,3
   82c28:	d16000c4 	addi	r5,gp,-32765
   82c2c:	01001cc4 	movi	r4,115
   82c30:	0087ba80 	call	87ba8 <HDMITX_WriteI2C_ByteN>
            HDMITX_WriteI2C_ByteN(REG_TX_CSC_MTX11_L,bCSCMtx_RGB2YUV_ITU601_0_255,SIZEOF_CSCMTX) ;
   82c34:	01800484 	movi	r6,18
   82c38:	014002b4 	movhi	r5,10
   82c3c:	2971f484 	addi	r5,r5,-14382
   82c40:	01001d84 	movi	r4,118
   82c44:	0087ba80 	call	87ba8 <HDMITX_WriteI2C_ByteN>
            break ;
   82c48:	0001883a 	nop

    }
    #endif

    #ifdef SUPPORT_INPUTYUV
    if (csc == B_CSC_YUV2RGB)
   82c4c:	e0bffd03 	ldbu	r2,-12(fp)
   82c50:	108000d8 	cmpnei	r2,r2,3
   82c54:	1000421e 	bne	r2,zero,82d60 <SetCSCScale+0x4e4>
    {
        int i;
        ErrorF("CSC = YUV2RGB %x ",csc) ;
   82c58:	e0bffd03 	ldbu	r2,-12(fp)
   82c5c:	100b883a 	mov	r5,r2
   82c60:	010002b4 	movhi	r4,10
   82c64:	212f0c04 	addi	r4,r4,-17360
   82c68:	00877a40 	call	877a4 <ErrorF>

        switch(bInputMode&(F_MODE_ITU709|F_MODE_16_235))
   82c6c:	e0bffe03 	ldbu	r2,-8(fp)
   82c70:	10800c0c 	andi	r2,r2,48
   82c74:	10c00820 	cmpeqi	r3,r2,32
   82c78:	18001f1e 	bne	r3,zero,82cf8 <SetCSCScale+0x47c>
   82c7c:	10c00c20 	cmpeqi	r3,r2,48
   82c80:	1800031e 	bne	r3,zero,82c90 <SetCSCScale+0x414>
   82c84:	10800420 	cmpeqi	r2,r2,16
   82c88:	10000e1e 	bne	r2,zero,82cc4 <SetCSCScale+0x448>
   82c8c:	00002706 	br	82d2c <SetCSCScale+0x4b0>
        {
        case F_MODE_ITU709|F_MODE_16_235:
            ErrorF("ITU709 16-235 ") ;
   82c90:	010002b4 	movhi	r4,10
   82c94:	212efc04 	addi	r4,r4,-17424
   82c98:	00877a40 	call	877a4 <ErrorF>
            HDMITX_WriteI2C_ByteN(REG_TX_CSC_YOFF,bCSCOffset_16_235,SIZEOF_CSCOFFSET) ;
   82c9c:	018000c4 	movi	r6,3
   82ca0:	d1600004 	addi	r5,gp,-32768
   82ca4:	01001cc4 	movi	r4,115
   82ca8:	0087ba80 	call	87ba8 <HDMITX_WriteI2C_ByteN>
            HDMITX_WriteI2C_ByteN(REG_TX_CSC_MTX11_L,bCSCMtx_YUV2RGB_ITU709_16_235,SIZEOF_CSCMTX) ;
   82cac:	01800484 	movi	r6,18
   82cb0:	014002b4 	movhi	r5,10
   82cb4:	29720b04 	addi	r5,r5,-14292
   82cb8:	01001d84 	movi	r4,118
   82cbc:	0087ba80 	call	87ba8 <HDMITX_WriteI2C_ByteN>
            break ;
   82cc0:	00002706 	br	82d60 <SetCSCScale+0x4e4>
        case F_MODE_ITU709|F_MODE_0_255:
            ErrorF("ITU709 0-255 ") ;
   82cc4:	010002b4 	movhi	r4,10
   82cc8:	212f0004 	addi	r4,r4,-17408
   82ccc:	00877a40 	call	877a4 <ErrorF>
            HDMITX_WriteI2C_ByteN(REG_TX_CSC_YOFF,bCSCOffset_0_255,SIZEOF_CSCOFFSET) ;
   82cd0:	018000c4 	movi	r6,3
   82cd4:	d16000c4 	addi	r5,gp,-32765
   82cd8:	01001cc4 	movi	r4,115
   82cdc:	0087ba80 	call	87ba8 <HDMITX_WriteI2C_ByteN>
            HDMITX_WriteI2C_ByteN(REG_TX_CSC_MTX11_L,bCSCMtx_YUV2RGB_ITU709_0_255,SIZEOF_CSCMTX) ;
   82ce0:	01800484 	movi	r6,18
   82ce4:	014002b4 	movhi	r5,10
   82ce8:	29720f84 	addi	r5,r5,-14274
   82cec:	01001d84 	movi	r4,118
   82cf0:	0087ba80 	call	87ba8 <HDMITX_WriteI2C_ByteN>
            break ;
   82cf4:	00001a06 	br	82d60 <SetCSCScale+0x4e4>
        case F_MODE_ITU601|F_MODE_16_235:
            ErrorF("ITU601 16-235 ") ;
   82cf8:	010002b4 	movhi	r4,10
   82cfc:	212f0404 	addi	r4,r4,-17392
   82d00:	00877a40 	call	877a4 <ErrorF>
            HDMITX_WriteI2C_ByteN(REG_TX_CSC_YOFF,bCSCOffset_16_235,SIZEOF_CSCOFFSET) ;
   82d04:	018000c4 	movi	r6,3
   82d08:	d1600004 	addi	r5,gp,-32768
   82d0c:	01001cc4 	movi	r4,115
   82d10:	0087ba80 	call	87ba8 <HDMITX_WriteI2C_ByteN>
            HDMITX_WriteI2C_ByteN(REG_TX_CSC_MTX11_L,bCSCMtx_YUV2RGB_ITU601_16_235,SIZEOF_CSCMTX) ;
   82d14:	01800484 	movi	r6,18
   82d18:	014002b4 	movhi	r5,10
   82d1c:	29720204 	addi	r5,r5,-14328
   82d20:	01001d84 	movi	r4,118
   82d24:	0087ba80 	call	87ba8 <HDMITX_WriteI2C_ByteN>
            break ;
   82d28:	00000d06 	br	82d60 <SetCSCScale+0x4e4>
        case F_MODE_ITU601|F_MODE_0_255:
        default:
            //????? debug
            ErrorF("ITU601 0-255 ") ;
   82d2c:	010002b4 	movhi	r4,10
   82d30:	212f0804 	addi	r4,r4,-17376
   82d34:	00877a40 	call	877a4 <ErrorF>
            HDMITX_WriteI2C_ByteN(REG_TX_CSC_YOFF,bCSCOffset_0_255,SIZEOF_CSCOFFSET) ;
   82d38:	018000c4 	movi	r6,3
   82d3c:	d16000c4 	addi	r5,gp,-32765
   82d40:	01001cc4 	movi	r4,115
   82d44:	0087ba80 	call	87ba8 <HDMITX_WriteI2C_ByteN>
            HDMITX_WriteI2C_ByteN(REG_TX_CSC_MTX11_L,bCSCMtx_YUV2RGB_ITU601_0_255,SIZEOF_CSCMTX) ;
   82d48:	01800484 	movi	r6,18
   82d4c:	014002b4 	movhi	r5,10
   82d50:	29720684 	addi	r5,r5,-14310
   82d54:	01001d84 	movi	r4,118
   82d58:	0087ba80 	call	87ba8 <HDMITX_WriteI2C_ByteN>
            break ;
   82d5c:	0001883a 	nop
        }
    }
    #endif

    ucData = HDMITX_ReadI2C_Byte(REG_TX_CSC_CTRL) & ~(M_CSC_SEL|B_TX_DNFREE_GO|B_TX_EN_DITHER|B_TX_EN_UDFILTER) ;
   82d60:	01001c84 	movi	r4,114
   82d64:	0087a640 	call	87a64 <HDMITX_ReadI2C_Byte>
   82d68:	1080070c 	andi	r2,r2,28
   82d6c:	e0bffd85 	stb	r2,-10(fp)
    ucData |= filter|csc ;
   82d70:	e0fffd43 	ldbu	r3,-11(fp)
   82d74:	e0bffd03 	ldbu	r2,-12(fp)
   82d78:	1884b03a 	or	r2,r3,r2
   82d7c:	1007883a 	mov	r3,r2
   82d80:	e0bffd83 	ldbu	r2,-10(fp)
   82d84:	1884b03a 	or	r2,r3,r2
   82d88:	e0bffd85 	stb	r2,-10(fp)
    HDMITX_WriteI2C_Byte(REG_TX_CSC_CTRL,ucData) ;
   82d8c:	e0bffd83 	ldbu	r2,-10(fp)
   82d90:	100b883a 	mov	r5,r2
   82d94:	01001c84 	movi	r4,114
   82d98:	0087aa80 	call	87aa8 <HDMITX_WriteI2C_Byte>
    // set output Up/Down Filter,Dither control

}
   82d9c:	0001883a 	nop
   82da0:	e037883a 	mov	sp,fp
   82da4:	dfc00117 	ldw	ra,4(sp)
   82da8:	df000017 	ldw	fp,0(sp)
   82dac:	dec00204 	addi	sp,sp,8
   82db0:	f800283a 	ret

00082db4 <SetupAFE>:
//////////////////////////////////////////////////////////////////////

static void
// SetupAFE(BYTE ucFreqInMHz)
SetupAFE(VIDEOPCLKLEVEL level)
{
   82db4:	defffd04 	addi	sp,sp,-12
   82db8:	dfc00215 	stw	ra,8(sp)
   82dbc:	df000115 	stw	fp,4(sp)
   82dc0:	df000104 	addi	fp,sp,4
   82dc4:	e13fff15 	stw	r4,-4(fp)
    // @emily turn off reg61 before SetupAFE parameters.
    HDMITX_WriteI2C_Byte(REG_TX_AFE_DRV_CTRL,B_AFE_DRV_RST) ;/* 0x10 */
   82dc8:	01400404 	movi	r5,16
   82dcc:	01001844 	movi	r4,97
   82dd0:	0087aa80 	call	87aa8 <HDMITX_WriteI2C_Byte>
    // HDMITX_WriteI2C_Byte(REG_TX_AFE_DRV_CTRL,0x3) ;
    ErrorF("SetupAFE()\n") ;
   82dd4:	010002b4 	movhi	r4,10
   82dd8:	212f1104 	addi	r4,r4,-17340
   82ddc:	00877a40 	call	877a4 <ErrorF>
    //Reg64	0x08	0x80
    //Reg65	Default	Default
    //Reg66	Default	Default
    //Reg67	Default	Default

    switch(level)
   82de0:	e0bfff17 	ldw	r2,-4(fp)
   82de4:	108000a0 	cmpeqi	r2,r2,2
   82de8:	10000a26 	beq	r2,zero,82e14 <SetupAFE+0x60>
    {
    case PCLK_HIGH:
        HDMITX_WriteI2C_Byte(REG_TX_AFE_XP_CTRL,0x88) ; // reg62
   82dec:	01402204 	movi	r5,136
   82df0:	01001884 	movi	r4,98
   82df4:	0087aa80 	call	87aa8 <HDMITX_WriteI2C_Byte>
        HDMITX_WriteI2C_Byte(REG_TX_AFE_ISW_CTRL, 0x10) ; // reg63
   82df8:	01400404 	movi	r5,16
   82dfc:	010018c4 	movi	r4,99
   82e00:	0087aa80 	call	87aa8 <HDMITX_WriteI2C_Byte>
        HDMITX_WriteI2C_Byte(REG_TX_AFE_IP_CTRL,0x84) ; // reg64
   82e04:	01402104 	movi	r5,132
   82e08:	01001904 	movi	r4,100
   82e0c:	0087aa80 	call	87aa8 <HDMITX_WriteI2C_Byte>
        break ;
   82e10:	00000a06 	br	82e3c <SetupAFE+0x88>
    default:
        HDMITX_WriteI2C_Byte(REG_TX_AFE_XP_CTRL,0x18) ; // reg62
   82e14:	01400604 	movi	r5,24
   82e18:	01001884 	movi	r4,98
   82e1c:	0087aa80 	call	87aa8 <HDMITX_WriteI2C_Byte>
        HDMITX_WriteI2C_Byte(REG_TX_AFE_ISW_CTRL, 0x10) ; // reg63
   82e20:	01400404 	movi	r5,16
   82e24:	010018c4 	movi	r4,99
   82e28:	0087aa80 	call	87aa8 <HDMITX_WriteI2C_Byte>
        HDMITX_WriteI2C_Byte(REG_TX_AFE_IP_CTRL,0x0C) ; // reg64
   82e2c:	01400304 	movi	r5,12
   82e30:	01001904 	movi	r4,100
   82e34:	0087aa80 	call	87aa8 <HDMITX_WriteI2C_Byte>
        break ;
   82e38:	0001883a 	nop
    }
    //HDMITX_AndREG_Byte(REG_TX_SW_RST,~(B_REF_RST|B_VID_RST|B_AREF_RST|B_HDMI_RST)) ;
    DelayMS(1) ;
   82e3c:	01000044 	movi	r4,1
   82e40:	00877380 	call	87738 <DelayMS>
    HDMITX_AndREG_Byte(REG_TX_SW_RST,B_VID_RST|B_AREF_RST|B_AUD_RST|B_HDCP_RST) ;
   82e44:	01000104 	movi	r4,4
   82e48:	0087a640 	call	87a64 <HDMITX_ReadI2C_Byte>
   82e4c:	10803fcc 	andi	r2,r2,255
   82e50:	1080074c 	andi	r2,r2,29
   82e54:	100b883a 	mov	r5,r2
   82e58:	01000104 	movi	r4,4
   82e5c:	0087aa80 	call	87aa8 <HDMITX_WriteI2C_Byte>
    DelayMS(100) ;
   82e60:	01001904 	movi	r4,100
   82e64:	00877380 	call	87738 <DelayMS>
    HDMITX_AndREG_Byte(REG_TX_SW_RST,          B_AREF_RST|B_AUD_RST|B_HDCP_RST) ;
   82e68:	01000104 	movi	r4,4
   82e6c:	0087a640 	call	87a64 <HDMITX_ReadI2C_Byte>
   82e70:	10803fcc 	andi	r2,r2,255
   82e74:	1080054c 	andi	r2,r2,21
   82e78:	100b883a 	mov	r5,r2
   82e7c:	01000104 	movi	r4,4
   82e80:	0087aa80 	call	87aa8 <HDMITX_WriteI2C_Byte>
    // REG_TX_AFE_DRV_CTRL have to be set at the last step of setup .
}
   82e84:	0001883a 	nop
   82e88:	e037883a 	mov	sp,fp
   82e8c:	dfc00117 	ldw	ra,4(sp)
   82e90:	df000017 	ldw	fp,0(sp)
   82e94:	dec00204 	addi	sp,sp,8
   82e98:	f800283a 	ret

00082e9c <FireAFE>:
//         When program reg61 with 0x04,then audio and video circuit work.
// Side-Effect: N/A
//////////////////////////////////////////////////////////////////////
static void
FireAFE()
{
   82e9c:	defffc04 	addi	sp,sp,-16
   82ea0:	dfc00315 	stw	ra,12(sp)
   82ea4:	df000215 	stw	fp,8(sp)
   82ea8:	dc000115 	stw	r16,4(sp)
   82eac:	df000204 	addi	fp,sp,8
    BYTE reg;
    Switch_HDMITX_Bank(0) ;
   82eb0:	000b883a 	mov	r5,zero
   82eb4:	010003c4 	movi	r4,15
   82eb8:	0087aa80 	call	87aa8 <HDMITX_WriteI2C_Byte>

    HDMITX_WriteI2C_Byte(REG_TX_AFE_DRV_CTRL,0) ;
   82ebc:	000b883a 	mov	r5,zero
   82ec0:	01001844 	movi	r4,97
   82ec4:	0087aa80 	call	87aa8 <HDMITX_WriteI2C_Byte>

    for(reg = 0x61 ; reg <= 0x67 ; reg++)
   82ec8:	00801844 	movi	r2,97
   82ecc:	e0bffe05 	stb	r2,-8(fp)
   82ed0:	00000d06 	br	82f08 <FireAFE+0x6c>
    {
        ErrorF("Reg[%02X] = %02X\n",reg,HDMITX_ReadI2C_Byte(reg)) ;
   82ed4:	e43ffe03 	ldbu	r16,-8(fp)
   82ed8:	e0bffe03 	ldbu	r2,-8(fp)
   82edc:	1009883a 	mov	r4,r2
   82ee0:	0087a640 	call	87a64 <HDMITX_ReadI2C_Byte>
   82ee4:	10803fcc 	andi	r2,r2,255
   82ee8:	100d883a 	mov	r6,r2
   82eec:	800b883a 	mov	r5,r16
   82ef0:	010002b4 	movhi	r4,10
   82ef4:	212f1404 	addi	r4,r4,-17328
   82ef8:	00877a40 	call	877a4 <ErrorF>
    BYTE reg;
    Switch_HDMITX_Bank(0) ;

    HDMITX_WriteI2C_Byte(REG_TX_AFE_DRV_CTRL,0) ;

    for(reg = 0x61 ; reg <= 0x67 ; reg++)
   82efc:	e0bffe03 	ldbu	r2,-8(fp)
   82f00:	10800044 	addi	r2,r2,1
   82f04:	e0bffe05 	stb	r2,-8(fp)
   82f08:	e0bffe03 	ldbu	r2,-8(fp)
   82f0c:	10801a30 	cmpltui	r2,r2,104
   82f10:	103ff01e 	bne	r2,zero,82ed4 <__alt_data_end+0xfffb3014>
    {
        ErrorF("Reg[%02X] = %02X\n",reg,HDMITX_ReadI2C_Byte(reg)) ;
    }
}
   82f14:	0001883a 	nop
   82f18:	e6ffff04 	addi	sp,fp,-4
   82f1c:	dfc00217 	ldw	ra,8(sp)
   82f20:	df000117 	ldw	fp,4(sp)
   82f24:	dc000017 	ldw	r16,0(sp)
   82f28:	dec00304 	addi	sp,sp,12
   82f2c:	f800283a 	ret

00082f30 <SetAudioFormat>:
//////////////////////////////////////////////////////////////////////


static SYS_STATUS
SetAudioFormat(BYTE NumChannel,BYTE AudioEnable,BYTE bSampleFreq,BYTE AudSWL,BYTE AudioCatCode)
{
   82f30:	defff604 	addi	sp,sp,-40
   82f34:	dfc00915 	stw	ra,36(sp)
   82f38:	df000815 	stw	fp,32(sp)
   82f3c:	df000804 	addi	fp,sp,32
   82f40:	2011883a 	mov	r8,r4
   82f44:	3009883a 	mov	r4,r6
   82f48:	3807883a 	mov	r3,r7
   82f4c:	e0800217 	ldw	r2,8(fp)
   82f50:	e23ffb05 	stb	r8,-20(fp)
   82f54:	e17ffc05 	stb	r5,-16(fp)
   82f58:	e13ffd05 	stb	r4,-12(fp)
   82f5c:	e0fffe05 	stb	r3,-8(fp)
   82f60:	e0bfff05 	stb	r2,-4(fp)
    BYTE fs = bSampleFreq ;
   82f64:	e0bffd03 	ldbu	r2,-12(fp)
   82f68:	e0bffac5 	stb	r2,-21(fp)

    BYTE SourceValid ;
    BYTE SoruceNum ;


    ErrorF("SetAudioFormat(%d channel,%02X,SampleFreq %d,AudSWL %d,%02X)\n",NumChannel,AudioEnable,bSampleFreq,AudSWL,AudioCatCode) ;
   82f6c:	e13ffb03 	ldbu	r4,-20(fp)
   82f70:	e17ffc03 	ldbu	r5,-16(fp)
   82f74:	e1bffd03 	ldbu	r6,-12(fp)
   82f78:	e0bffe03 	ldbu	r2,-8(fp)
   82f7c:	e0ffff03 	ldbu	r3,-4(fp)
   82f80:	d8c00115 	stw	r3,4(sp)
   82f84:	d8800015 	stw	r2,0(sp)
   82f88:	300f883a 	mov	r7,r6
   82f8c:	280d883a 	mov	r6,r5
   82f90:	200b883a 	mov	r5,r4
   82f94:	010002b4 	movhi	r4,10
   82f98:	212f1904 	addi	r4,r4,-17308
   82f9c:	00877a40 	call	877a4 <ErrorF>


//richard remove    Instance[0].bOutputAudioMode |= 0x41 ;
    if(NumChannel > 6)
   82fa0:	e0bffb03 	ldbu	r2,-20(fp)
   82fa4:	108001f0 	cmpltui	r2,r2,7
   82fa8:	1000051e 	bne	r2,zero,82fc0 <SetAudioFormat+0x90>
    {
        SourceValid = B_AUD_ERR2FLAT | B_AUD_S3VALID | B_AUD_S2VALID | B_AUD_S1VALID ;
   82fac:	008003c4 	movi	r2,15
   82fb0:	e0bffa45 	stb	r2,-23(fp)
        SoruceNum = 4 ;
   82fb4:	00800104 	movi	r2,4
   82fb8:	e0bffa85 	stb	r2,-22(fp)
   82fbc:	00001d06 	br	83034 <SetAudioFormat+0x104>
    }
    else if (NumChannel > 4)
   82fc0:	e0bffb03 	ldbu	r2,-20(fp)
   82fc4:	10800170 	cmpltui	r2,r2,5
   82fc8:	1000051e 	bne	r2,zero,82fe0 <SetAudioFormat+0xb0>
    {
        SourceValid = B_AUD_ERR2FLAT | B_AUD_S2VALID | B_AUD_S1VALID ;
   82fcc:	008002c4 	movi	r2,11
   82fd0:	e0bffa45 	stb	r2,-23(fp)
        SoruceNum = 3 ;
   82fd4:	008000c4 	movi	r2,3
   82fd8:	e0bffa85 	stb	r2,-22(fp)
   82fdc:	00001506 	br	83034 <SetAudioFormat+0x104>
    }
    else if (NumChannel > 2)
   82fe0:	e0bffb03 	ldbu	r2,-20(fp)
   82fe4:	108000f0 	cmpltui	r2,r2,3
   82fe8:	1000051e 	bne	r2,zero,83000 <SetAudioFormat+0xd0>
    {
        SourceValid = B_AUD_ERR2FLAT | B_AUD_S1VALID ;
   82fec:	00800244 	movi	r2,9
   82ff0:	e0bffa45 	stb	r2,-23(fp)
        SoruceNum = 2 ;
   82ff4:	00800084 	movi	r2,2
   82ff8:	e0bffa85 	stb	r2,-22(fp)
   82ffc:	00000d06 	br	83034 <SetAudioFormat+0x104>
    }
    else
    {
        SourceValid = B_AUD_ERR2FLAT ; // only two channel.
   83000:	00800204 	movi	r2,8
   83004:	e0bffa45 	stb	r2,-23(fp)
        SoruceNum = 1 ;
   83008:	00800044 	movi	r2,1
   8300c:	e0bffa85 	stb	r2,-22(fp)
        Instance[0].bOutputAudioMode &= ~0x40 ;
   83010:	008002b4 	movhi	r2,10
   83014:	1085ab04 	addi	r2,r2,5804
   83018:	10c00103 	ldbu	r3,4(r2)
   8301c:	00bfefc4 	movi	r2,-65
   83020:	1884703a 	and	r2,r3,r2
   83024:	1007883a 	mov	r3,r2
   83028:	008002b4 	movhi	r2,10
   8302c:	1085ab04 	addi	r2,r2,5804
   83030:	10c00105 	stb	r3,4(r2)
    }

    AudioEnable &= ~ (M_AUD_SWL|B_SPDIFTC) ;
   83034:	e0bffc03 	ldbu	r2,-16(fp)
   83038:	108007cc 	andi	r2,r2,31
   8303c:	e0bffc05 	stb	r2,-16(fp)

    switch(AudSWL)
   83040:	e0bffe03 	ldbu	r2,-8(fp)
   83044:	10c004a0 	cmpeqi	r3,r2,18
   83048:	18000d1e 	bne	r3,zero,83080 <SetAudioFormat+0x150>
   8304c:	10c004c8 	cmpgei	r3,r2,19
   83050:	1800031e 	bne	r3,zero,83060 <SetAudioFormat+0x130>
   83054:	10800420 	cmpeqi	r2,r2,16
   83058:	1000061e 	bne	r2,zero,83074 <SetAudioFormat+0x144>
   8305c:	00001c06 	br	830d0 <SetAudioFormat+0x1a0>
   83060:	10c00520 	cmpeqi	r3,r2,20
   83064:	18000c1e 	bne	r3,zero,83098 <SetAudioFormat+0x168>
   83068:	10800620 	cmpeqi	r2,r2,24
   8306c:	1000111e 	bne	r2,zero,830b4 <SetAudioFormat+0x184>
   83070:	00001706 	br	830d0 <SetAudioFormat+0x1a0>
    {
    case 16:
        SWL = AUD_SWL_16 ;
   83074:	00800084 	movi	r2,2
   83078:	e0bffa05 	stb	r2,-24(fp)
        AudioEnable |= M_AUD_16BIT ;
        break ;
   8307c:	00001606 	br	830d8 <SetAudioFormat+0x1a8>
    case 18:
        SWL = AUD_SWL_18 ;
   83080:	00800104 	movi	r2,4
   83084:	e0bffa05 	stb	r2,-24(fp)
        AudioEnable |= M_AUD_18BIT ;
   83088:	e0bffc03 	ldbu	r2,-16(fp)
   8308c:	10801014 	ori	r2,r2,64
   83090:	e0bffc05 	stb	r2,-16(fp)
        break ;
   83094:	00001006 	br	830d8 <SetAudioFormat+0x1a8>
    case 20:
        SWL = AUD_SWL_20 ;
   83098:	00800284 	movi	r2,10
   8309c:	e0bffa05 	stb	r2,-24(fp)
        AudioEnable |= M_AUD_20BIT ;
   830a0:	e0fffc03 	ldbu	r3,-16(fp)
   830a4:	00bfe004 	movi	r2,-128
   830a8:	1884b03a 	or	r2,r3,r2
   830ac:	e0bffc05 	stb	r2,-16(fp)
        break ;
   830b0:	00000906 	br	830d8 <SetAudioFormat+0x1a8>
    case 24:
        SWL = AUD_SWL_24 ;
   830b4:	008002c4 	movi	r2,11
   830b8:	e0bffa05 	stb	r2,-24(fp)
        AudioEnable |= M_AUD_24BIT ;
   830bc:	e0fffc03 	ldbu	r3,-16(fp)
   830c0:	00bff004 	movi	r2,-64
   830c4:	1884b03a 	or	r2,r3,r2
   830c8:	e0bffc05 	stb	r2,-16(fp)
        break ;
   830cc:	00000206 	br	830d8 <SetAudioFormat+0x1a8>
    default:
        return ER_FAIL ;
   830d0:	00800044 	movi	r2,1
   830d4:	00005c06 	br	83248 <SetAudioFormat+0x318>
    }


    Switch_HDMITX_Bank(0) ;
   830d8:	000b883a 	mov	r5,zero
   830dc:	010003c4 	movi	r4,15
   830e0:	0087aa80 	call	87aa8 <HDMITX_WriteI2C_Byte>
    HDMITX_WriteI2C_Byte(REG_TX_AUDIO_CTRL0,AudioEnable&0xF0) ;
   830e4:	e0bffc03 	ldbu	r2,-16(fp)
   830e8:	10803c0c 	andi	r2,r2,240
   830ec:	100b883a 	mov	r5,r2
   830f0:	01003804 	movi	r4,224
   830f4:	0087aa80 	call	87aa8 <HDMITX_WriteI2C_Byte>

    HDMITX_AndREG_Byte(REG_TX_SW_RST,~(B_AUD_RST|B_AREF_RST)) ;
   830f8:	01000104 	movi	r4,4
   830fc:	0087a640 	call	87a64 <HDMITX_ReadI2C_Byte>
   83100:	10803fcc 	andi	r2,r2,255
   83104:	10803acc 	andi	r2,r2,235
   83108:	100b883a 	mov	r5,r2
   8310c:	01000104 	movi	r4,4
   83110:	0087aa80 	call	87aa8 <HDMITX_WriteI2C_Byte>
    HDMITX_WriteI2C_Byte(REG_TX_AUDIO_CTRL1,Instance[0].bOutputAudioMode) ; // regE1 bOutputAudioMode should be loaded from ROM image.
   83114:	008002b4 	movhi	r2,10
   83118:	1085ab04 	addi	r2,r2,5804
   8311c:	10800103 	ldbu	r2,4(r2)
   83120:	10803fcc 	andi	r2,r2,255
   83124:	100b883a 	mov	r5,r2
   83128:	01003844 	movi	r4,225
   8312c:	0087aa80 	call	87aa8 <HDMITX_WriteI2C_Byte>
    HDMITX_WriteI2C_Byte(REG_TX_AUDIO_FIFOMAP,0xE4) ; // default mapping.
   83130:	01403904 	movi	r5,228
   83134:	01003884 	movi	r4,226
   83138:	0087aa80 	call	87aa8 <HDMITX_WriteI2C_Byte>
    HDMITX_WriteI2C_Byte(REG_TX_AUDIO_CTRL3,(Instance[0].bAudioChannelSwap&0xF)|(AudioEnable&B_AUD_SPDIF)) ;
   8313c:	008002b4 	movhi	r2,10
   83140:	1085ab04 	addi	r2,r2,5804
   83144:	10800143 	ldbu	r2,5(r2)
   83148:	108003cc 	andi	r2,r2,15
   8314c:	1007883a 	mov	r3,r2
   83150:	e0bffc03 	ldbu	r2,-16(fp)
   83154:	1080040c 	andi	r2,r2,16
   83158:	1884b03a 	or	r2,r3,r2
   8315c:	10803fcc 	andi	r2,r2,255
   83160:	100b883a 	mov	r5,r2
   83164:	010038c4 	movi	r4,227
   83168:	0087aa80 	call	87aa8 <HDMITX_WriteI2C_Byte>
    HDMITX_WriteI2C_Byte(REG_TX_AUD_SRCVALID_FLAT,SourceValid) ;
   8316c:	e0bffa43 	ldbu	r2,-23(fp)
   83170:	100b883a 	mov	r5,r2
   83174:	01003904 	movi	r4,228
   83178:	0087aa80 	call	87aa8 <HDMITX_WriteI2C_Byte>
//     HDMITX_WriteI2C_Byte(REG_TX_AUDCHST_CA_FS,0x00|fs) ; // choose clock
//     fs = ~fs ; // OFS is the one's complement of FS
//     HDMITX_WriteI2C_Byte(REG_TX_AUDCHST_OFS_WL,(fs<<4)|SWL) ;
//     Switch_HDMITX_Bank(0) ;

    Switch_HDMITX_Bank(1) ;
   8317c:	01400044 	movi	r5,1
   83180:	010003c4 	movi	r4,15
   83184:	0087aa80 	call	87aa8 <HDMITX_WriteI2C_Byte>
    HDMITX_WriteI2C_Byte(REG_TX_AUDCHST_MODE,0 |((NumChannel == 1)?1:0)) ; // 2 audio channel without pre-emphasis,if NumChannel set it as 1.
   83188:	e0bffb03 	ldbu	r2,-20(fp)
   8318c:	10800060 	cmpeqi	r2,r2,1
   83190:	10803fcc 	andi	r2,r2,255
   83194:	100b883a 	mov	r5,r2
   83198:	01002444 	movi	r4,145
   8319c:	0087aa80 	call	87aa8 <HDMITX_WriteI2C_Byte>
    HDMITX_WriteI2C_Byte(REG_TX_AUDCHST_CAT,AudioCatCode) ;
   831a0:	e0bfff03 	ldbu	r2,-4(fp)
   831a4:	100b883a 	mov	r5,r2
   831a8:	01002484 	movi	r4,146
   831ac:	0087aa80 	call	87aa8 <HDMITX_WriteI2C_Byte>
    HDMITX_WriteI2C_Byte(REG_TX_AUDCHST_SRCNUM,SoruceNum) ;
   831b0:	e0bffa83 	ldbu	r2,-22(fp)
   831b4:	100b883a 	mov	r5,r2
   831b8:	010024c4 	movi	r4,147
   831bc:	0087aa80 	call	87aa8 <HDMITX_WriteI2C_Byte>
    HDMITX_WriteI2C_Byte(REG_TX_AUD0CHST_CHTNUM,0) ;
   831c0:	000b883a 	mov	r5,zero
   831c4:	01002504 	movi	r4,148
   831c8:	0087aa80 	call	87aa8 <HDMITX_WriteI2C_Byte>
    HDMITX_WriteI2C_Byte(REG_TX_AUDCHST_CA_FS,0x00|fs) ; // choose clock
   831cc:	e0bffac3 	ldbu	r2,-21(fp)
   831d0:	100b883a 	mov	r5,r2
   831d4:	01002604 	movi	r4,152
   831d8:	0087aa80 	call	87aa8 <HDMITX_WriteI2C_Byte>
    fs = ~fs ; // OFS is the one's complement of FS
   831dc:	e0bffac3 	ldbu	r2,-21(fp)
   831e0:	0084303a 	nor	r2,zero,r2
   831e4:	e0bffac5 	stb	r2,-21(fp)
    HDMITX_WriteI2C_Byte(REG_TX_AUDCHST_OFS_WL,(fs<<4)|SWL) ;
   831e8:	e0bffac3 	ldbu	r2,-21(fp)
   831ec:	1004913a 	slli	r2,r2,4
   831f0:	1007883a 	mov	r3,r2
   831f4:	e0bffa03 	ldbu	r2,-24(fp)
   831f8:	1884b03a 	or	r2,r3,r2
   831fc:	10803fcc 	andi	r2,r2,255
   83200:	100b883a 	mov	r5,r2
   83204:	01002644 	movi	r4,153
   83208:	0087aa80 	call	87aa8 <HDMITX_WriteI2C_Byte>
    Switch_HDMITX_Bank(0) ;
   8320c:	000b883a 	mov	r5,zero
   83210:	010003c4 	movi	r4,15
   83214:	0087aa80 	call	87aa8 <HDMITX_WriteI2C_Byte>
    
    // richard modify (could be bug), if(!(AudioEnable | B_AUD_SPDIF))
    if(!(AudioEnable & B_AUD_SPDIF))
   83218:	e0bffc03 	ldbu	r2,-16(fp)
   8321c:	1080040c 	andi	r2,r2,16
   83220:	1000041e 	bne	r2,zero,83234 <SetAudioFormat+0x304>
    {
        HDMITX_WriteI2C_Byte(REG_TX_AUDIO_CTRL0,AudioEnable) ;
   83224:	e0bffc03 	ldbu	r2,-16(fp)
   83228:	100b883a 	mov	r5,r2
   8322c:	01003804 	movi	r4,224
   83230:	0087aa80 	call	87aa8 <HDMITX_WriteI2C_Byte>
    }

    Instance[0].bAudioChannelEnable = AudioEnable ;
   83234:	008002b4 	movhi	r2,10
   83238:	1085ab04 	addi	r2,r2,5804
   8323c:	e0fffc03 	ldbu	r3,-16(fp)
   83240:	10c00185 	stb	r3,6(r2)
    
    // HDMITX_AndREG_Byte(REG_TX_SW_RST,B_AUD_RST) ;    // enable Audio
    return ER_SUCCESS;
   83244:	0005883a 	mov	r2,zero
}
   83248:	e037883a 	mov	sp,fp
   8324c:	dfc00117 	ldw	ra,4(sp)
   83250:	df000017 	ldw	fp,0(sp)
   83254:	dec00204 	addi	sp,sp,8
   83258:	f800283a 	ret

0008325c <AutoAdjustAudio>:



static void
AutoAdjustAudio()
{
   8325c:	defff904 	addi	sp,sp,-28
   83260:	dfc00615 	stw	ra,24(sp)
   83264:	df000515 	stw	fp,20(sp)
   83268:	df000504 	addi	fp,sp,20
//         {
//             return ;
//         }
//     }
    
    Switch_HDMITX_Bank(1) ;
   8326c:	01400044 	movi	r5,1
   83270:	010003c4 	movi	r4,15
   83274:	0087aa80 	call	87aa8 <HDMITX_WriteI2C_Byte>
    
    N = ((unsigned long)HDMITX_ReadI2C_Byte(REGPktAudN2)&0xF) << 16 ;
   83278:	01000d44 	movi	r4,53
   8327c:	0087a640 	call	87a64 <HDMITX_ReadI2C_Byte>
   83280:	10803fcc 	andi	r2,r2,255
   83284:	108003cc 	andi	r2,r2,15
   83288:	1004943a 	slli	r2,r2,16
   8328c:	e0bffc15 	stw	r2,-16(fp)
    N |= ((unsigned long)HDMITX_ReadI2C_Byte(REGPktAudN1)) <<8 ;
   83290:	01000d04 	movi	r4,52
   83294:	0087a640 	call	87a64 <HDMITX_ReadI2C_Byte>
   83298:	10803fcc 	andi	r2,r2,255
   8329c:	1004923a 	slli	r2,r2,8
   832a0:	e0fffc17 	ldw	r3,-16(fp)
   832a4:	1884b03a 	or	r2,r3,r2
   832a8:	e0bffc15 	stw	r2,-16(fp)
    N |= ((unsigned long)HDMITX_ReadI2C_Byte(REGPktAudN0)) ;
   832ac:	01000cc4 	movi	r4,51
   832b0:	0087a640 	call	87a64 <HDMITX_ReadI2C_Byte>
   832b4:	10803fcc 	andi	r2,r2,255
   832b8:	e0fffc17 	ldw	r3,-16(fp)
   832bc:	1884b03a 	or	r2,r3,r2
   832c0:	e0bffc15 	stw	r2,-16(fp)
    
    CTS = ((unsigned long)HDMITX_ReadI2C_Byte(REGPktAudCTSCnt2)&0xF) << 16 ;
   832c4:	01002884 	movi	r4,162
   832c8:	0087a640 	call	87a64 <HDMITX_ReadI2C_Byte>
   832cc:	10803fcc 	andi	r2,r2,255
   832d0:	108003cc 	andi	r2,r2,15
   832d4:	1004943a 	slli	r2,r2,16
   832d8:	e0bffd15 	stw	r2,-12(fp)
    CTS |= ((unsigned long)HDMITX_ReadI2C_Byte(REGPktAudCTSCnt1)) <<8 ;
   832dc:	01002844 	movi	r4,161
   832e0:	0087a640 	call	87a64 <HDMITX_ReadI2C_Byte>
   832e4:	10803fcc 	andi	r2,r2,255
   832e8:	1004923a 	slli	r2,r2,8
   832ec:	e0fffd17 	ldw	r3,-12(fp)
   832f0:	1884b03a 	or	r2,r3,r2
   832f4:	e0bffd15 	stw	r2,-12(fp)
    CTS |= ((unsigned long)HDMITX_ReadI2C_Byte(REGPktAudCTSCnt0)) ;
   832f8:	01002804 	movi	r4,160
   832fc:	0087a640 	call	87a64 <HDMITX_ReadI2C_Byte>
   83300:	10803fcc 	andi	r2,r2,255
   83304:	e0fffd17 	ldw	r3,-12(fp)
   83308:	1884b03a 	or	r2,r3,r2
   8330c:	e0bffd15 	stw	r2,-12(fp)
    Switch_HDMITX_Bank(0) ;
   83310:	000b883a 	mov	r5,zero
   83314:	010003c4 	movi	r4,15
   83318:	0087aa80 	call	87aa8 <HDMITX_WriteI2C_Byte>
    
    // CTS = TMDSCLK * N / ( 128 * SampleFreq ) 
    // SampleFreq = TMDSCLK * N / (128*CTS) 
    
    if( CTS == 0 ) 
   8331c:	e0bffd17 	ldw	r2,-12(fp)
   83320:	10008826 	beq	r2,zero,83544 <AutoAdjustAudio+0x2e8>
    {
        return  ;
    }
    
    SampleFreq = Instance[0].TMDSClock/CTS ;
   83324:	008002b4 	movhi	r2,10
   83328:	1085ab04 	addi	r2,r2,5804
   8332c:	10800217 	ldw	r2,8(r2)
   83330:	e17ffd17 	ldw	r5,-12(fp)
   83334:	1009883a 	mov	r4,r2
   83338:	0088d8c0 	call	88d8c <__udivsi3>
   8333c:	e0bffe15 	stw	r2,-8(fp)
    SampleFreq *= N ;
   83340:	e0fffe17 	ldw	r3,-8(fp)
   83344:	e0bffc17 	ldw	r2,-16(fp)
   83348:	1885383a 	mul	r2,r3,r2
   8334c:	e0bffe15 	stw	r2,-8(fp)
    SampleFreq /= 128 ;
   83350:	e0bffe17 	ldw	r2,-8(fp)
   83354:	1004d1fa 	srli	r2,r2,7
   83358:	e0bffe15 	stw	r2,-8(fp)
            
    if( SampleFreq>31000 && SampleFreq<=38050 )
   8335c:	e0bffe17 	ldw	r2,-8(fp)
   83360:	109e4670 	cmpltui	r2,r2,31001
   83364:	10000a1e 	bne	r2,zero,83390 <AutoAdjustAudio+0x134>
   83368:	e0bffe17 	ldw	r2,-8(fp)
   8336c:	10a528e8 	cmpgeui	r2,r2,38051
   83370:	1000071e 	bne	r2,zero,83390 <AutoAdjustAudio+0x134>
    {
        Instance[0].bAudFs = AUDFS_32KHz ;
   83374:	008002b4 	movhi	r2,10
   83378:	1085ab04 	addi	r2,r2,5804
   8337c:	00c000c4 	movi	r3,3
   83380:	10c001c5 	stb	r3,7(r2)
        fs = AUDFS_32KHz ;;
   83384:	008000c4 	movi	r2,3
   83388:	e0bffb05 	stb	r2,-20(fp)
   8338c:	00004506 	br	834a4 <AutoAdjustAudio+0x248>
    }
    else if (SampleFreq < 46050 ) // 44.1KHz
   83390:	e0bffe17 	ldw	r2,-8(fp)
   83394:	10acf8a8 	cmpgeui	r2,r2,46050
   83398:	1000051e 	bne	r2,zero,833b0 <AutoAdjustAudio+0x154>
    {
        Instance[0].bAudFs = AUDFS_44p1KHz ;
   8339c:	008002b4 	movhi	r2,10
   833a0:	1085ab04 	addi	r2,r2,5804
   833a4:	100001c5 	stb	zero,7(r2)
        fs = AUDFS_44p1KHz ;;
   833a8:	e03ffb05 	stb	zero,-20(fp)
   833ac:	00003d06 	br	834a4 <AutoAdjustAudio+0x248>
    }
    else if (SampleFreq < 68100 ) // 48KHz
   833b0:	e0fffe17 	ldw	r3,-8(fp)
   833b4:	00800074 	movhi	r2,1
   833b8:	108280c4 	addi	r2,r2,2563
   833bc:	10c00736 	bltu	r2,r3,833dc <AutoAdjustAudio+0x180>
    {
        Instance[0].bAudFs = AUDFS_48KHz ;
   833c0:	008002b4 	movhi	r2,10
   833c4:	1085ab04 	addi	r2,r2,5804
   833c8:	00c00084 	movi	r3,2
   833cc:	10c001c5 	stb	r3,7(r2)
        fs = AUDFS_48KHz ;;
   833d0:	00800084 	movi	r2,2
   833d4:	e0bffb05 	stb	r2,-20(fp)
   833d8:	00003206 	br	834a4 <AutoAdjustAudio+0x248>
    }
    else if (SampleFreq < 92100 ) // 88.2 KHz
   833dc:	e0fffe17 	ldw	r3,-8(fp)
   833e0:	00800074 	movhi	r2,1
   833e4:	1099f0c4 	addi	r2,r2,26563
   833e8:	10c00736 	bltu	r2,r3,83408 <AutoAdjustAudio+0x1ac>
    {
        Instance[0].bAudFs = AUDFS_88p2KHz ;
   833ec:	008002b4 	movhi	r2,10
   833f0:	1085ab04 	addi	r2,r2,5804
   833f4:	00c00204 	movi	r3,8
   833f8:	10c001c5 	stb	r3,7(r2)
        fs = AUDFS_88p2KHz ;;
   833fc:	00800204 	movi	r2,8
   83400:	e0bffb05 	stb	r2,-20(fp)
   83404:	00002706 	br	834a4 <AutoAdjustAudio+0x248>
    }
    else if (SampleFreq < 136200 ) // 96KHz
   83408:	e0fffe17 	ldw	r3,-8(fp)
   8340c:	008000b4 	movhi	r2,2
   83410:	108501c4 	addi	r2,r2,5127
   83414:	10c00736 	bltu	r2,r3,83434 <AutoAdjustAudio+0x1d8>
    {
        Instance[0].bAudFs = AUDFS_96KHz ;
   83418:	008002b4 	movhi	r2,10
   8341c:	1085ab04 	addi	r2,r2,5804
   83420:	00c00284 	movi	r3,10
   83424:	10c001c5 	stb	r3,7(r2)
        fs = AUDFS_96KHz ;;
   83428:	00800284 	movi	r2,10
   8342c:	e0bffb05 	stb	r2,-20(fp)
   83430:	00001c06 	br	834a4 <AutoAdjustAudio+0x248>
    }
    else if (SampleFreq < 184200 ) // 176.4KHz
   83434:	e0fffe17 	ldw	r3,-8(fp)
   83438:	008000f4 	movhi	r2,3
   8343c:	10b3e1c4 	addi	r2,r2,-12409
   83440:	10c00736 	bltu	r2,r3,83460 <AutoAdjustAudio+0x204>
    {
        Instance[0].bAudFs = AUDFS_176p4KHz ;
   83444:	008002b4 	movhi	r2,10
   83448:	1085ab04 	addi	r2,r2,5804
   8344c:	00c00304 	movi	r3,12
   83450:	10c001c5 	stb	r3,7(r2)
        fs = AUDFS_176p4KHz ;;
   83454:	00800304 	movi	r2,12
   83458:	e0bffb05 	stb	r2,-20(fp)
   8345c:	00001106 	br	834a4 <AutoAdjustAudio+0x248>
    }
    else if (SampleFreq < 240200 ) // 192KHz
   83460:	e0fffe17 	ldw	r3,-8(fp)
   83464:	00800134 	movhi	r2,4
   83468:	10aa91c4 	addi	r2,r2,-21945
   8346c:	10c00736 	bltu	r2,r3,8348c <AutoAdjustAudio+0x230>
    {
        Instance[0].bAudFs = AUDFS_192KHz ;
   83470:	008002b4 	movhi	r2,10
   83474:	1085ab04 	addi	r2,r2,5804
   83478:	00c00384 	movi	r3,14
   8347c:	10c001c5 	stb	r3,7(r2)
        fs = AUDFS_192KHz ;;
   83480:	00800384 	movi	r2,14
   83484:	e0bffb05 	stb	r2,-20(fp)
   83488:	00000606 	br	834a4 <AutoAdjustAudio+0x248>
    }
    else 
    {
        Instance[0].bAudFs = AUDFS_OTHER;
   8348c:	008002b4 	movhi	r2,10
   83490:	1085ab04 	addi	r2,r2,5804
   83494:	00c00044 	movi	r3,1
   83498:	10c001c5 	stb	r3,7(r2)
        fs = AUDFS_OTHER;;
   8349c:	00800044 	movi	r2,1
   834a0:	e0bffb05 	stb	r2,-20(fp)
    }

//    bPendingAdjustAudioFreq = FALSE ;
    
    SetNCTS(Instance[0].TMDSClock, Instance[0].bAudFs) ; // set N, CTS by new generated clock.
   834a4:	008002b4 	movhi	r2,10
   834a8:	1085ab04 	addi	r2,r2,5804
   834ac:	10c00217 	ldw	r3,8(r2)
   834b0:	008002b4 	movhi	r2,10
   834b4:	1085ab04 	addi	r2,r2,5804
   834b8:	108001c3 	ldbu	r2,7(r2)
   834bc:	10803fcc 	andi	r2,r2,255
   834c0:	100b883a 	mov	r5,r2
   834c4:	1809883a 	mov	r4,r3
   834c8:	00836880 	call	83688 <SetNCTS>
    
    Switch_HDMITX_Bank(1) ; // adjust the new fs in channel status registers
   834cc:	01400044 	movi	r5,1
   834d0:	010003c4 	movi	r4,15
   834d4:	0087aa80 	call	87aa8 <HDMITX_WriteI2C_Byte>
    HDMITX_WriteI2C_Byte(REG_TX_AUDCHST_CA_FS,0x00|fs) ; // choose clock
   834d8:	e0bffb03 	ldbu	r2,-20(fp)
   834dc:	100b883a 	mov	r5,r2
   834e0:	01002604 	movi	r4,152
   834e4:	0087aa80 	call	87aa8 <HDMITX_WriteI2C_Byte>
    fs = ~fs ; // OFS is the one's complement of FS
   834e8:	e0bffb03 	ldbu	r2,-20(fp)
   834ec:	0084303a 	nor	r2,zero,r2
   834f0:	e0bffb05 	stb	r2,-20(fp)
    uc = HDMITX_ReadI2C_Byte(REG_TX_AUDCHST_OFS_WL) ;
   834f4:	01002644 	movi	r4,153
   834f8:	0087a640 	call	87a64 <HDMITX_ReadI2C_Byte>
   834fc:	e0bfff05 	stb	r2,-4(fp)
    uc &= 0xF ;
   83500:	e0bfff03 	ldbu	r2,-4(fp)
   83504:	108003cc 	andi	r2,r2,15
   83508:	e0bfff05 	stb	r2,-4(fp)
    uc |= fs << 4 ;
   8350c:	e0bffb03 	ldbu	r2,-20(fp)
   83510:	1004913a 	slli	r2,r2,4
   83514:	1007883a 	mov	r3,r2
   83518:	e0bfff03 	ldbu	r2,-4(fp)
   8351c:	1884b03a 	or	r2,r3,r2
   83520:	e0bfff05 	stb	r2,-4(fp)
    HDMITX_WriteI2C_Byte(REG_TX_AUDCHST_OFS_WL,uc) ;
   83524:	e0bfff03 	ldbu	r2,-4(fp)
   83528:	100b883a 	mov	r5,r2
   8352c:	01002644 	movi	r4,153
   83530:	0087aa80 	call	87aa8 <HDMITX_WriteI2C_Byte>
    
    Switch_HDMITX_Bank(0) ;
   83534:	000b883a 	mov	r5,zero
   83538:	010003c4 	movi	r4,15
   8353c:	0087aa80 	call	87aa8 <HDMITX_WriteI2C_Byte>
   83540:	00000106 	br	83548 <AutoAdjustAudio+0x2ec>
    // CTS = TMDSCLK * N / ( 128 * SampleFreq ) 
    // SampleFreq = TMDSCLK * N / (128*CTS) 
    
    if( CTS == 0 ) 
    {
        return  ;
   83544:	0001883a 	nop
    uc |= fs << 4 ;
    HDMITX_WriteI2C_Byte(REG_TX_AUDCHST_OFS_WL,uc) ;
    
    Switch_HDMITX_Bank(0) ;

}
   83548:	e037883a 	mov	sp,fp
   8354c:	dfc00117 	ldw	ra,4(sp)
   83550:	df000017 	ldw	fp,0(sp)
   83554:	dec00204 	addi	sp,sp,8
   83558:	f800283a 	ret

0008355c <SetupAudioChannel>:

static void
SetupAudioChannel()
{
   8355c:	defffe04 	addi	sp,sp,-8
   83560:	dfc00115 	stw	ra,4(sp)
   83564:	df000015 	stw	fp,0(sp)
   83568:	d839883a 	mov	fp,sp
    static BYTE bEnableAudioChannel=FALSE ;
    if( (HDMITX_ReadI2C_Byte(REG_TX_SW_RST) & (B_AUD_RST|B_AREF_RST)) == 0) // audio enabled
   8356c:	01000104 	movi	r4,4
   83570:	0087a640 	call	87a64 <HDMITX_ReadI2C_Byte>
   83574:	10803fcc 	andi	r2,r2,255
   83578:	1080050c 	andi	r2,r2,20
   8357c:	10003c1e 	bne	r2,zero,83670 <SetupAudioChannel+0x114>
    {
        Switch_HDMITX_Bank(0) ;
   83580:	000b883a 	mov	r5,zero
   83584:	010003c4 	movi	r4,15
   83588:	0087aa80 	call	87aa8 <HDMITX_WriteI2C_Byte>

        if((HDMITX_ReadI2C_Byte(REG_TX_AUDIO_CTRL0) & 0xf) == 0)
   8358c:	01003804 	movi	r4,224
   83590:	0087a640 	call	87a64 <HDMITX_ReadI2C_Byte>
   83594:	10803fcc 	andi	r2,r2,255
   83598:	108003cc 	andi	r2,r2,15
   8359c:	10001f1e 	bne	r2,zero,8361c <SetupAudioChannel+0xc0>
        {
            if(HDMITX_ReadI2C_Byte(REG_TX_CLK_STATUS2) & B_OSF_LOCK)
   835a0:	010017c4 	movi	r4,95
   835a4:	0087a640 	call	87a64 <HDMITX_ReadI2C_Byte>
   835a8:	10803fcc 	andi	r2,r2,255
   835ac:	1080080c 	andi	r2,r2,32
   835b0:	10002f26 	beq	r2,zero,83670 <SetupAudioChannel+0x114>
            {
                SetNCTS(Instance[0].TMDSClock, Instance[0].bAudFs) ; // to enable automatic progress setting for N/CTS
   835b4:	008002b4 	movhi	r2,10
   835b8:	1085ab04 	addi	r2,r2,5804
   835bc:	10c00217 	ldw	r3,8(r2)
   835c0:	008002b4 	movhi	r2,10
   835c4:	1085ab04 	addi	r2,r2,5804
   835c8:	108001c3 	ldbu	r2,7(r2)
   835cc:	10803fcc 	andi	r2,r2,255
   835d0:	100b883a 	mov	r5,r2
   835d4:	1809883a 	mov	r4,r3
   835d8:	00836880 	call	83688 <SetNCTS>
                DelayMS(5);
   835dc:	01000144 	movi	r4,5
   835e0:	00877380 	call	87738 <DelayMS>
                AutoAdjustAudio() ;
   835e4:	008325c0 	call	8325c <AutoAdjustAudio>
                Switch_HDMITX_Bank(0) ;
   835e8:	000b883a 	mov	r5,zero
   835ec:	010003c4 	movi	r4,15
   835f0:	0087aa80 	call	87aa8 <HDMITX_WriteI2C_Byte>
                HDMITX_WriteI2C_Byte(REG_TX_AUDIO_CTRL0, Instance[0].bAudioChannelEnable) ;
   835f4:	008002b4 	movhi	r2,10
   835f8:	1085ab04 	addi	r2,r2,5804
   835fc:	10800183 	ldbu	r2,6(r2)
   83600:	10803fcc 	andi	r2,r2,255
   83604:	100b883a 	mov	r5,r2
   83608:	01003804 	movi	r4,224
   8360c:	0087aa80 	call	87aa8 <HDMITX_WriteI2C_Byte>
                bEnableAudioChannel=TRUE ;
   83610:	00800044 	movi	r2,1
   83614:	d0a99685 	stb	r2,-22950(gp)
                }
                bEnableAudioChannel=FALSE ;
            }
        }
    }
}
   83618:	00001506 	br	83670 <SetupAudioChannel+0x114>
                bEnableAudioChannel=TRUE ;
            }
        }
        else
        {
            if((HDMITX_ReadI2C_Byte(REG_TX_CLK_STATUS2) & B_OSF_LOCK)==0)
   8361c:	010017c4 	movi	r4,95
   83620:	0087a640 	call	87a64 <HDMITX_ReadI2C_Byte>
   83624:	10803fcc 	andi	r2,r2,255
   83628:	1080080c 	andi	r2,r2,32
   8362c:	1000101e 	bne	r2,zero,83670 <SetupAudioChannel+0x114>
            {
                // AutoAdjustAudio() ;
                // ForceSetNCTS(CurrentPCLK, CurrentSampleFreq) ;
                if( bEnableAudioChannel == TRUE )
   83630:	d0a99683 	ldbu	r2,-22950(gp)
   83634:	10803fcc 	andi	r2,r2,255
   83638:	10800058 	cmpnei	r2,r2,1
   8363c:	10000b1e 	bne	r2,zero,8366c <SetupAudioChannel+0x110>
                {
                    Switch_HDMITX_Bank(0) ;
   83640:	000b883a 	mov	r5,zero
   83644:	010003c4 	movi	r4,15
   83648:	0087aa80 	call	87aa8 <HDMITX_WriteI2C_Byte>
                    HDMITX_WriteI2C_Byte(REG_TX_AUDIO_CTRL0, Instance[0].bAudioChannelEnable&0xF0) ;
   8364c:	008002b4 	movhi	r2,10
   83650:	1085ab04 	addi	r2,r2,5804
   83654:	10800183 	ldbu	r2,6(r2)
   83658:	10803fcc 	andi	r2,r2,255
   8365c:	10803c0c 	andi	r2,r2,240
   83660:	100b883a 	mov	r5,r2
   83664:	01003804 	movi	r4,224
   83668:	0087aa80 	call	87aa8 <HDMITX_WriteI2C_Byte>
                }
                bEnableAudioChannel=FALSE ;
   8366c:	d0299685 	stb	zero,-22950(gp)
            }
        }
    }
}
   83670:	0001883a 	nop
   83674:	e037883a 	mov	sp,fp
   83678:	dfc00117 	ldw	ra,4(sp)
   8367c:	df000017 	ldw	fp,0(sp)
   83680:	dec00204 	addi	sp,sp,8
   83684:	f800283a 	ret

00083688 <SetNCTS>:
// Side-Effect: register bank will reset to bank 0.
//////////////////////////////////////////////////////////////////////

static SYS_STATUS
SetNCTS(ULONG PCLK,ULONG Fs)
{
   83688:	defff804 	addi	sp,sp,-32
   8368c:	dfc00715 	stw	ra,28(sp)
   83690:	df000615 	stw	fp,24(sp)
   83694:	dc400515 	stw	r17,20(sp)
   83698:	dc000415 	stw	r16,16(sp)
   8369c:	df000604 	addi	fp,sp,24
   836a0:	e13ffc15 	stw	r4,-16(fp)
   836a4:	e17ffd15 	stw	r5,-12(fp)
    ULONG n,MCLK ;

    MCLK = Fs * 256 ; // MCLK = fs * 256 ;
   836a8:	e0bffd17 	ldw	r2,-12(fp)
   836ac:	1004923a 	slli	r2,r2,8
   836b0:	e0bffb15 	stw	r2,-20(fp)

    ErrorF("SetNCTS(%ld,%ld): MCLK = %ld\n",PCLK,Fs,MCLK) ;
   836b4:	e1fffb17 	ldw	r7,-20(fp)
   836b8:	e1bffd17 	ldw	r6,-12(fp)
   836bc:	e17ffc17 	ldw	r5,-16(fp)
   836c0:	010002b4 	movhi	r4,10
   836c4:	212f2904 	addi	r4,r4,-17244
   836c8:	00877a40 	call	877a4 <ErrorF>

    if( PCLK )
   836cc:	e0bffc17 	ldw	r2,-16(fp)
   836d0:	10009b26 	beq	r2,zero,83940 <SetNCTS+0x2b8>
    {
    	switch (Fs) {
   836d4:	e0bffd17 	ldw	r2,-12(fp)
   836d8:	108003e8 	cmpgeui	r2,r2,15
   836dc:	10008e1e 	bne	r2,zero,83918 <SetNCTS+0x290>
   836e0:	e0bffd17 	ldw	r2,-12(fp)
   836e4:	100690ba 	slli	r3,r2,2
   836e8:	00800234 	movhi	r2,8
   836ec:	108dbf04 	addi	r2,r2,14076
   836f0:	1885883a 	add	r2,r3,r2
   836f4:	10800017 	ldw	r2,0(r2)
   836f8:	1000683a 	jmp	r2
   836fc:	0008377c 	xorhi	zero,zero,8413
   83700:	00083918 	cmpnei	zero,zero,8420
   83704:	000837c0 	call	837c <__reset-0x77c84>
   83708:	00083738 	rdprs	zero,zero,8412
   8370c:	00083918 	cmpnei	zero,zero,8420
   83710:	00083918 	cmpnei	zero,zero,8420
   83714:	00083918 	cmpnei	zero,zero,8420
   83718:	00083918 	cmpnei	zero,zero,8420
   8371c:	00083804 	movi	zero,8416
   83720:	00083918 	cmpnei	zero,zero,8420
   83724:	00083848 	cmpgei	zero,zero,8417
   83728:	00083918 	cmpnei	zero,zero,8420
   8372c:	0008388c 	andi	zero,zero,8418
   83730:	00083918 	cmpnei	zero,zero,8420
   83734:	000838d4 	movui	zero,8419
    		case AUDFS_32KHz:
    			switch (PCLK) {
   83738:	e0fffc17 	ldw	r3,-16(fp)
   8373c:	008038b4 	movhi	r2,226
   83740:	10974e04 	addi	r2,r2,23864
   83744:	18800626 	beq	r3,r2,83760 <SetNCTS+0xd8>
   83748:	00811b34 	movhi	r2,1132
   8374c:	10b48604 	addi	r2,r2,-11752
   83750:	1880061e 	bne	r3,r2,8376c <SetNCTS+0xe4>
    				case 74175000: n = 11648; break;
   83754:	008b6004 	movi	r2,11648
   83758:	e0bffa15 	stw	r2,-24(fp)
   8375c:	00000606 	br	83778 <SetNCTS+0xf0>
    				case 14835000: n = 11648; break;
   83760:	008b6004 	movi	r2,11648
   83764:	e0bffa15 	stw	r2,-24(fp)
   83768:	00000306 	br	83778 <SetNCTS+0xf0>
    				default: n = 4096;
   8376c:	00840004 	movi	r2,4096
   83770:	e0bffa15 	stw	r2,-24(fp)
    			}
    			break;
   83774:	0000a206 	br	83a00 <SetNCTS+0x378>
   83778:	0000a106 	br	83a00 <SetNCTS+0x378>
    		case AUDFS_44p1KHz:
    			switch (PCLK) {
   8377c:	e0fffc17 	ldw	r3,-16(fp)
   83780:	008038b4 	movhi	r2,226
   83784:	10974e04 	addi	r2,r2,23864
   83788:	18800626 	beq	r3,r2,837a4 <SetNCTS+0x11c>
   8378c:	00811b34 	movhi	r2,1132
   83790:	10b48604 	addi	r2,r2,-11752
   83794:	1880061e 	bne	r3,r2,837b0 <SetNCTS+0x128>
    				case 74175000: n = 17836; break;
   83798:	00916b04 	movi	r2,17836
   8379c:	e0bffa15 	stw	r2,-24(fp)
   837a0:	00000606 	br	837bc <SetNCTS+0x134>
    				case 14835000: n = 8918; break;
   837a4:	0088b584 	movi	r2,8918
   837a8:	e0bffa15 	stw	r2,-24(fp)
   837ac:	00000306 	br	837bc <SetNCTS+0x134>
    				default: n = 6272;
   837b0:	00862004 	movi	r2,6272
   837b4:	e0bffa15 	stw	r2,-24(fp)
    			}
    			break;
   837b8:	00009106 	br	83a00 <SetNCTS+0x378>
   837bc:	00009006 	br	83a00 <SetNCTS+0x378>
    		case AUDFS_48KHz:
    			switch (PCLK) {
   837c0:	e0fffc17 	ldw	r3,-16(fp)
   837c4:	008038b4 	movhi	r2,226
   837c8:	10974e04 	addi	r2,r2,23864
   837cc:	18800626 	beq	r3,r2,837e8 <SetNCTS+0x160>
   837d0:	00811b34 	movhi	r2,1132
   837d4:	10b48604 	addi	r2,r2,-11752
   837d8:	1880061e 	bne	r3,r2,837f4 <SetNCTS+0x16c>
    				case 74175000: n = 11648; break;
   837dc:	008b6004 	movi	r2,11648
   837e0:	e0bffa15 	stw	r2,-24(fp)
   837e4:	00000606 	br	83800 <SetNCTS+0x178>
    				case 14835000: n = 5824; break;
   837e8:	0085b004 	movi	r2,5824
   837ec:	e0bffa15 	stw	r2,-24(fp)
   837f0:	00000306 	br	83800 <SetNCTS+0x178>
    				default: n = 6144;
   837f4:	00860004 	movi	r2,6144
   837f8:	e0bffa15 	stw	r2,-24(fp)
    			}
    			break;
   837fc:	00008006 	br	83a00 <SetNCTS+0x378>
   83800:	00007f06 	br	83a00 <SetNCTS+0x378>
    		case AUDFS_88p2KHz:
    			switch (PCLK) {
   83804:	e0fffc17 	ldw	r3,-16(fp)
   83808:	008038b4 	movhi	r2,226
   8380c:	10974e04 	addi	r2,r2,23864
   83810:	18800626 	beq	r3,r2,8382c <SetNCTS+0x1a4>
   83814:	00811b34 	movhi	r2,1132
   83818:	10b48604 	addi	r2,r2,-11752
   8381c:	1880061e 	bne	r3,r2,83838 <SetNCTS+0x1b0>
    				case 74175000: n = 35672; break;
   83820:	00a2d614 	movui	r2,35672
   83824:	e0bffa15 	stw	r2,-24(fp)
   83828:	00000606 	br	83844 <SetNCTS+0x1bc>
    				case 14835000: n = 17836; break;
   8382c:	00916b04 	movi	r2,17836
   83830:	e0bffa15 	stw	r2,-24(fp)
   83834:	00000306 	br	83844 <SetNCTS+0x1bc>
    				default: n = 12544;
   83838:	008c4004 	movi	r2,12544
   8383c:	e0bffa15 	stw	r2,-24(fp)
    			}
    			break;
   83840:	00006f06 	br	83a00 <SetNCTS+0x378>
   83844:	00006e06 	br	83a00 <SetNCTS+0x378>
    		case AUDFS_96KHz:
    			switch (PCLK) {
   83848:	e0fffc17 	ldw	r3,-16(fp)
   8384c:	008038b4 	movhi	r2,226
   83850:	10974e04 	addi	r2,r2,23864
   83854:	18800626 	beq	r3,r2,83870 <SetNCTS+0x1e8>
   83858:	00811b34 	movhi	r2,1132
   8385c:	10b48604 	addi	r2,r2,-11752
   83860:	1880061e 	bne	r3,r2,8387c <SetNCTS+0x1f4>
    				case 74175000: n = 23296; break;
   83864:	0096c004 	movi	r2,23296
   83868:	e0bffa15 	stw	r2,-24(fp)
   8386c:	00000606 	br	83888 <SetNCTS+0x200>
    				case 14835000: n = 11648; break;
   83870:	008b6004 	movi	r2,11648
   83874:	e0bffa15 	stw	r2,-24(fp)
   83878:	00000306 	br	83888 <SetNCTS+0x200>
    				default: n = 12288;
   8387c:	008c0004 	movi	r2,12288
   83880:	e0bffa15 	stw	r2,-24(fp)
    			}
    			break;
   83884:	00005e06 	br	83a00 <SetNCTS+0x378>
   83888:	00005d06 	br	83a00 <SetNCTS+0x378>
    		case AUDFS_176p4KHz:
    			switch (PCLK) {
   8388c:	e0fffc17 	ldw	r3,-16(fp)
   83890:	008038b4 	movhi	r2,226
   83894:	10974e04 	addi	r2,r2,23864
   83898:	18800726 	beq	r3,r2,838b8 <SetNCTS+0x230>
   8389c:	00811b34 	movhi	r2,1132
   838a0:	10b48604 	addi	r2,r2,-11752
   838a4:	1880071e 	bne	r3,r2,838c4 <SetNCTS+0x23c>
    				case 74175000: n = 71344; break;
   838a8:	00800074 	movhi	r2,1
   838ac:	1085ac04 	addi	r2,r2,5808
   838b0:	e0bffa15 	stw	r2,-24(fp)
   838b4:	00000606 	br	838d0 <SetNCTS+0x248>
    				case 14835000: n = 35672; break;
   838b8:	00a2d614 	movui	r2,35672
   838bc:	e0bffa15 	stw	r2,-24(fp)
   838c0:	00000306 	br	838d0 <SetNCTS+0x248>
    				default: n = 25088;
   838c4:	00988004 	movi	r2,25088
   838c8:	e0bffa15 	stw	r2,-24(fp)
    			}
    			break;
   838cc:	00004c06 	br	83a00 <SetNCTS+0x378>
   838d0:	00004b06 	br	83a00 <SetNCTS+0x378>
    		case AUDFS_192KHz:
    			switch (PCLK) {
   838d4:	e0fffc17 	ldw	r3,-16(fp)
   838d8:	008038b4 	movhi	r2,226
   838dc:	10974e04 	addi	r2,r2,23864
   838e0:	18800626 	beq	r3,r2,838fc <SetNCTS+0x274>
   838e4:	00811b34 	movhi	r2,1132
   838e8:	10b48604 	addi	r2,r2,-11752
   838ec:	1880061e 	bne	r3,r2,83908 <SetNCTS+0x280>
    				case 74175000: n = 46592; break;
   838f0:	00ad8014 	movui	r2,46592
   838f4:	e0bffa15 	stw	r2,-24(fp)
   838f8:	00000606 	br	83914 <SetNCTS+0x28c>
    				case 14835000: n = 23296; break;
   838fc:	0096c004 	movi	r2,23296
   83900:	e0bffa15 	stw	r2,-24(fp)
   83904:	00000306 	br	83914 <SetNCTS+0x28c>
    				default: n = 24576;
   83908:	00980004 	movi	r2,24576
   8390c:	e0bffa15 	stw	r2,-24(fp)
    			}
    			break;
   83910:	00003b06 	br	83a00 <SetNCTS+0x378>
   83914:	00003a06 	br	83a00 <SetNCTS+0x378>
    		default: n = MCLK / 2000;
   83918:	e0fffb17 	ldw	r3,-20(fp)
   8391c:	008418b4 	movhi	r2,4194
   83920:	109374c4 	addi	r2,r2,19923
   83924:	1888383a 	mulxuu	r4,r3,r2
   83928:	1885383a 	mul	r2,r3,r2
   8392c:	1021883a 	mov	r16,r2
   83930:	2023883a 	mov	r17,r4
   83934:	8804d1fa 	srli	r2,r17,7
   83938:	e0bffa15 	stw	r2,-24(fp)
   8393c:	00003006 	br	83a00 <SetNCTS+0x378>
    	}
    }
    else
    {
        switch(Fs)
   83940:	e0bffd17 	ldw	r2,-12(fp)
   83944:	108003e8 	cmpgeui	r2,r2,15
   83948:	10002b1e 	bne	r2,zero,839f8 <SetNCTS+0x370>
   8394c:	e0bffd17 	ldw	r2,-12(fp)
   83950:	100690ba 	slli	r3,r2,2
   83954:	00800234 	movhi	r2,8
   83958:	108e5a04 	addi	r2,r2,14696
   8395c:	1885883a 	add	r2,r3,r2
   83960:	10800017 	ldw	r2,0(r2)
   83964:	1000683a 	jmp	r2
   83968:	000839b0 	cmpltui	zero,zero,8422
   8396c:	000839f8 	rdprs	zero,zero,8423
   83970:	000839bc 	xorhi	zero,zero,8422
   83974:	000839a4 	muli	zero,zero,8422
   83978:	000839f8 	rdprs	zero,zero,8423
   8397c:	000839f8 	rdprs	zero,zero,8423
   83980:	000839f8 	rdprs	zero,zero,8423
   83984:	000839f8 	rdprs	zero,zero,8423
   83988:	000839c8 	cmpgei	zero,zero,8423
   8398c:	000839f8 	rdprs	zero,zero,8423
   83990:	000839d4 	movui	zero,8423
   83994:	000839f8 	rdprs	zero,zero,8423
   83998:	000839e0 	cmpeqi	zero,zero,8423
   8399c:	000839f8 	rdprs	zero,zero,8423
   839a0:	000839ec 	andhi	zero,zero,8423
        {
		case AUDFS_32KHz: n = 4096; break;
   839a4:	00840004 	movi	r2,4096
   839a8:	e0bffa15 	stw	r2,-24(fp)
   839ac:	00001406 	br	83a00 <SetNCTS+0x378>
		case AUDFS_44p1KHz: n = 6272; break;
   839b0:	00862004 	movi	r2,6272
   839b4:	e0bffa15 	stw	r2,-24(fp)
   839b8:	00001106 	br	83a00 <SetNCTS+0x378>
		case AUDFS_48KHz: n = 6144; break;
   839bc:	00860004 	movi	r2,6144
   839c0:	e0bffa15 	stw	r2,-24(fp)
   839c4:	00000e06 	br	83a00 <SetNCTS+0x378>
		case AUDFS_88p2KHz: n = 12544; break;
   839c8:	008c4004 	movi	r2,12544
   839cc:	e0bffa15 	stw	r2,-24(fp)
   839d0:	00000b06 	br	83a00 <SetNCTS+0x378>
		case AUDFS_96KHz: n = 12288; break;
   839d4:	008c0004 	movi	r2,12288
   839d8:	e0bffa15 	stw	r2,-24(fp)
   839dc:	00000806 	br	83a00 <SetNCTS+0x378>
		case AUDFS_176p4KHz: n = 25088; break;
   839e0:	00988004 	movi	r2,25088
   839e4:	e0bffa15 	stw	r2,-24(fp)
   839e8:	00000506 	br	83a00 <SetNCTS+0x378>
		case AUDFS_192KHz: n = 24576; break;
   839ec:	00980004 	movi	r2,24576
   839f0:	e0bffa15 	stw	r2,-24(fp)
   839f4:	00000206 	br	83a00 <SetNCTS+0x378>
		default: n = 6144;
   839f8:	00860004 	movi	r2,6144
   839fc:	e0bffa15 	stw	r2,-24(fp)
        }

    }


    ErrorF("N = %ld\n",n) ;
   83a00:	e17ffa17 	ldw	r5,-24(fp)
   83a04:	010002b4 	movhi	r4,10
   83a08:	212f3104 	addi	r4,r4,-17212
   83a0c:	00877a40 	call	877a4 <ErrorF>
    Switch_HDMITX_Bank(1) ;
   83a10:	01400044 	movi	r5,1
   83a14:	010003c4 	movi	r4,15
   83a18:	0087aa80 	call	87aa8 <HDMITX_WriteI2C_Byte>
    HDMITX_WriteI2C_Byte(REGPktAudN0,(BYTE)((n)&0xFF)) ;
   83a1c:	e0bffa17 	ldw	r2,-24(fp)
   83a20:	10803fcc 	andi	r2,r2,255
   83a24:	100b883a 	mov	r5,r2
   83a28:	01000cc4 	movi	r4,51
   83a2c:	0087aa80 	call	87aa8 <HDMITX_WriteI2C_Byte>
    HDMITX_WriteI2C_Byte(REGPktAudN1,(BYTE)((n>>8)&0xFF)) ;
   83a30:	e0bffa17 	ldw	r2,-24(fp)
   83a34:	1004d23a 	srli	r2,r2,8
   83a38:	10803fcc 	andi	r2,r2,255
   83a3c:	100b883a 	mov	r5,r2
   83a40:	01000d04 	movi	r4,52
   83a44:	0087aa80 	call	87aa8 <HDMITX_WriteI2C_Byte>
    HDMITX_WriteI2C_Byte(REGPktAudN2,(BYTE)((n>>16)&0xF)) ;
   83a48:	e0bffa17 	ldw	r2,-24(fp)
   83a4c:	1004d43a 	srli	r2,r2,16
   83a50:	108003cc 	andi	r2,r2,15
   83a54:	100b883a 	mov	r5,r2
   83a58:	01000d44 	movi	r4,53
   83a5c:	0087aa80 	call	87aa8 <HDMITX_WriteI2C_Byte>
    Switch_HDMITX_Bank(0) ;
   83a60:	000b883a 	mov	r5,zero
   83a64:	010003c4 	movi	r4,15
   83a68:	0087aa80 	call	87aa8 <HDMITX_WriteI2C_Byte>

    HDMITX_WriteI2C_Byte(REG_TX_PKT_SINGLE_CTRL,0) ; // D[1] = 0,HW auto count CTS
   83a6c:	000b883a 	mov	r5,zero
   83a70:	01003144 	movi	r4,197
   83a74:	0087aa80 	call	87aa8 <HDMITX_WriteI2C_Byte>

    HDMITX_SetREG_Byte(REG_TX_CLK_CTRL0,~M_EXT_MCLK_SEL,B_EXT_256FS) ;
   83a78:	01001604 	movi	r4,88
   83a7c:	0087a640 	call	87a64 <HDMITX_ReadI2C_Byte>
   83a80:	1007883a 	mov	r3,r2
   83a84:	00bffcc4 	movi	r2,-13
   83a88:	1884703a 	and	r2,r3,r2
   83a8c:	10800114 	ori	r2,r2,4
   83a90:	10803fcc 	andi	r2,r2,255
   83a94:	100b883a 	mov	r5,r2
   83a98:	01001604 	movi	r4,88
   83a9c:	0087aa80 	call	87aa8 <HDMITX_WriteI2C_Byte>
    return ER_SUCCESS ;
   83aa0:	0005883a 	mov	r2,zero
}
   83aa4:	e6fffe04 	addi	sp,fp,-8
   83aa8:	dfc00317 	ldw	ra,12(sp)
   83aac:	df000217 	ldw	fp,8(sp)
   83ab0:	dc400117 	ldw	r17,4(sp)
   83ab4:	dc000017 	ldw	r16,0(sp)
   83ab8:	dec00404 	addi	sp,sp,16
   83abc:	f800283a 	ret

00083ac0 <ClearDDCFIFO>:
// Side-Effect: DDC master will set to be HOST.
//////////////////////////////////////////////////////////////////////

static void
ClearDDCFIFO()
{
   83ac0:	defffe04 	addi	sp,sp,-8
   83ac4:	dfc00115 	stw	ra,4(sp)
   83ac8:	df000015 	stw	fp,0(sp)
   83acc:	d839883a 	mov	fp,sp
    HDMITX_WriteI2C_Byte(REG_TX_DDC_MASTER_CTRL,B_MASTERDDC|B_MASTERHOST) ;
   83ad0:	01400044 	movi	r5,1
   83ad4:	01000404 	movi	r4,16
   83ad8:	0087aa80 	call	87aa8 <HDMITX_WriteI2C_Byte>
    HDMITX_WriteI2C_Byte(REG_TX_DDC_CMD,CMD_FIFO_CLR) ;
   83adc:	01400244 	movi	r5,9
   83ae0:	01000544 	movi	r4,21
   83ae4:	0087aa80 	call	87aa8 <HDMITX_WriteI2C_Byte>
}
   83ae8:	0001883a 	nop
   83aec:	e037883a 	mov	sp,fp
   83af0:	dfc00117 	ldw	ra,4(sp)
   83af4:	df000017 	ldw	fp,0(sp)
   83af8:	dec00204 	addi	sp,sp,8
   83afc:	f800283a 	ret

00083b00 <GenerateDDCSCLK>:

static void
GenerateDDCSCLK()
{
   83b00:	defffe04 	addi	sp,sp,-8
   83b04:	dfc00115 	stw	ra,4(sp)
   83b08:	df000015 	stw	fp,0(sp)
   83b0c:	d839883a 	mov	fp,sp
    HDMITX_WriteI2C_Byte(REG_TX_DDC_MASTER_CTRL,B_MASTERDDC|B_MASTERHOST) ;
   83b10:	01400044 	movi	r5,1
   83b14:	01000404 	movi	r4,16
   83b18:	0087aa80 	call	87aa8 <HDMITX_WriteI2C_Byte>
    HDMITX_WriteI2C_Byte(REG_TX_DDC_CMD,CMD_GEN_SCLCLK) ;
   83b1c:	01400284 	movi	r5,10
   83b20:	01000544 	movi	r4,21
   83b24:	0087aa80 	call	87aa8 <HDMITX_WriteI2C_Byte>
}
   83b28:	0001883a 	nop
   83b2c:	e037883a 	mov	sp,fp
   83b30:	dfc00117 	ldw	ra,4(sp)
   83b34:	df000017 	ldw	fp,0(sp)
   83b38:	dec00204 	addi	sp,sp,8
   83b3c:	f800283a 	ret

00083b40 <AbortDDC>:
// Side-Effect:
//////////////////////////////////////////////////////////////////////

static void
AbortDDC()
{
   83b40:	defffc04 	addi	sp,sp,-16
   83b44:	dfc00315 	stw	ra,12(sp)
   83b48:	df000215 	stw	fp,8(sp)
   83b4c:	df000204 	addi	fp,sp,8
    BYTE CPDesire,SWReset,DDCMaster ;
    BYTE uc, timeout ;
    // save the SW reset,DDC master,and CP Desire setting.
    SWReset = HDMITX_ReadI2C_Byte(REG_TX_SW_RST) ;
   83b50:	01000104 	movi	r4,4
   83b54:	0087a640 	call	87a64 <HDMITX_ReadI2C_Byte>
   83b58:	e0bffe45 	stb	r2,-7(fp)
    CPDesire = HDMITX_ReadI2C_Byte(REG_TX_HDCP_DESIRE) ;
   83b5c:	01000804 	movi	r4,32
   83b60:	0087a640 	call	87a64 <HDMITX_ReadI2C_Byte>
   83b64:	e0bffe85 	stb	r2,-6(fp)
    DDCMaster = HDMITX_ReadI2C_Byte(REG_TX_DDC_MASTER_CTRL) ;
   83b68:	01000404 	movi	r4,16
   83b6c:	0087a640 	call	87a64 <HDMITX_ReadI2C_Byte>
   83b70:	e0bffec5 	stb	r2,-5(fp)


    HDMITX_WriteI2C_Byte(REG_TX_HDCP_DESIRE,CPDesire&(~B_CPDESIRE)) ; // @emily change order
   83b74:	e0bffe83 	ldbu	r2,-6(fp)
   83b78:	10803f8c 	andi	r2,r2,254
   83b7c:	100b883a 	mov	r5,r2
   83b80:	01000804 	movi	r4,32
   83b84:	0087aa80 	call	87aa8 <HDMITX_WriteI2C_Byte>
    HDMITX_WriteI2C_Byte(REG_TX_SW_RST,SWReset|B_HDCP_RST) ;		 // @emily change order
   83b88:	e0bffe43 	ldbu	r2,-7(fp)
   83b8c:	10800054 	ori	r2,r2,1
   83b90:	10803fcc 	andi	r2,r2,255
   83b94:	100b883a 	mov	r5,r2
   83b98:	01000104 	movi	r4,4
   83b9c:	0087aa80 	call	87aa8 <HDMITX_WriteI2C_Byte>
    HDMITX_WriteI2C_Byte(REG_TX_DDC_MASTER_CTRL,B_MASTERDDC|B_MASTERHOST) ;
   83ba0:	01400044 	movi	r5,1
   83ba4:	01000404 	movi	r4,16
   83ba8:	0087aa80 	call	87aa8 <HDMITX_WriteI2C_Byte>
    HDMITX_WriteI2C_Byte(REG_TX_DDC_CMD,CMD_DDC_ABORT) ;
   83bac:	014003c4 	movi	r5,15
   83bb0:	01000544 	movi	r4,21
   83bb4:	0087aa80 	call	87aa8 <HDMITX_WriteI2C_Byte>

    for( timeout = 0 ; timeout < 200 ; timeout++ )
   83bb8:	e03ffe05 	stb	zero,-8(fp)
   83bbc:	00001606 	br	83c18 <AbortDDC+0xd8>
    {
        uc = HDMITX_ReadI2C_Byte(REG_TX_DDC_STATUS) ;
   83bc0:	01000584 	movi	r4,22
   83bc4:	0087a640 	call	87a64 <HDMITX_ReadI2C_Byte>
   83bc8:	e0bfff05 	stb	r2,-4(fp)
        if (uc&B_DDC_DONE)
   83bcc:	e0bfff03 	ldbu	r2,-4(fp)
   83bd0:	10803fcc 	andi	r2,r2,255
   83bd4:	1080201c 	xori	r2,r2,128
   83bd8:	10bfe004 	addi	r2,r2,-128
   83bdc:	10001216 	blt	r2,zero,83c28 <AbortDDC+0xe8>
        {
            break ; // success
        }
        
        if( uc & (B_DDC_NOACK|B_DDC_WAITBUS|B_DDC_ARBILOSE) )
   83be0:	e0bfff03 	ldbu	r2,-4(fp)
   83be4:	10800e0c 	andi	r2,r2,56
   83be8:	10000626 	beq	r2,zero,83c04 <AbortDDC+0xc4>
        {
            ErrorF("AbortDDC Fail by reg16=%02X\n",uc) ;
   83bec:	e0bfff03 	ldbu	r2,-4(fp)
   83bf0:	100b883a 	mov	r5,r2
   83bf4:	010002b4 	movhi	r4,10
   83bf8:	212f3404 	addi	r4,r4,-17200
   83bfc:	00877a40 	call	877a4 <ErrorF>
            break ;
   83c00:	00000a06 	br	83c2c <AbortDDC+0xec>
        }
        DelayMS(1) ; // delay 1 ms to stable.
   83c04:	01000044 	movi	r4,1
   83c08:	00877380 	call	87738 <DelayMS>
    HDMITX_WriteI2C_Byte(REG_TX_HDCP_DESIRE,CPDesire&(~B_CPDESIRE)) ; // @emily change order
    HDMITX_WriteI2C_Byte(REG_TX_SW_RST,SWReset|B_HDCP_RST) ;		 // @emily change order
    HDMITX_WriteI2C_Byte(REG_TX_DDC_MASTER_CTRL,B_MASTERDDC|B_MASTERHOST) ;
    HDMITX_WriteI2C_Byte(REG_TX_DDC_CMD,CMD_DDC_ABORT) ;

    for( timeout = 0 ; timeout < 200 ; timeout++ )
   83c0c:	e0bffe03 	ldbu	r2,-8(fp)
   83c10:	10800044 	addi	r2,r2,1
   83c14:	e0bffe05 	stb	r2,-8(fp)
   83c18:	e0bffe03 	ldbu	r2,-8(fp)
   83c1c:	10803230 	cmpltui	r2,r2,200
   83c20:	103fe71e 	bne	r2,zero,83bc0 <__alt_data_end+0xfffb3d00>
   83c24:	00000106 	br	83c2c <AbortDDC+0xec>
    {
        uc = HDMITX_ReadI2C_Byte(REG_TX_DDC_STATUS) ;
        if (uc&B_DDC_DONE)
        {
            break ; // success
   83c28:	0001883a 	nop
        }
        DelayMS(1) ; // delay 1 ms to stable.
    }

    // restore the SW reset,DDC master,and CP Desire setting.
    HDMITX_WriteI2C_Byte(REG_TX_SW_RST,SWReset) ;
   83c2c:	e0bffe43 	ldbu	r2,-7(fp)
   83c30:	100b883a 	mov	r5,r2
   83c34:	01000104 	movi	r4,4
   83c38:	0087aa80 	call	87aa8 <HDMITX_WriteI2C_Byte>
    HDMITX_WriteI2C_Byte(REG_TX_HDCP_DESIRE,CPDesire) ;
   83c3c:	e0bffe83 	ldbu	r2,-6(fp)
   83c40:	100b883a 	mov	r5,r2
   83c44:	01000804 	movi	r4,32
   83c48:	0087aa80 	call	87aa8 <HDMITX_WriteI2C_Byte>
    HDMITX_WriteI2C_Byte(REG_TX_DDC_MASTER_CTRL,DDCMaster) ;
   83c4c:	e0bffec3 	ldbu	r2,-5(fp)
   83c50:	100b883a 	mov	r5,r2
   83c54:	01000404 	movi	r4,16
   83c58:	0087aa80 	call	87aa8 <HDMITX_WriteI2C_Byte>
}
   83c5c:	0001883a 	nop
   83c60:	e037883a 	mov	sp,fp
   83c64:	dfc00117 	ldw	ra,4(sp)
   83c68:	df000017 	ldw	fp,0(sp)
   83c6c:	dec00204 	addi	sp,sp,8
   83c70:	f800283a 	ret

00083c74 <ReadEDID>:
// Side-Effect: DDC master will set to be HOST. DDC FIFO will be used and dirty.
//////////////////////////////////////////////////////////////////////

static SYS_STATUS
ReadEDID(BYTE *pData,BYTE bSegment,BYTE offset,SHORT Count)
{
   83c74:	defff504 	addi	sp,sp,-44
   83c78:	dfc00a15 	stw	ra,40(sp)
   83c7c:	df000915 	stw	fp,36(sp)
   83c80:	dc000815 	stw	r16,32(sp)
   83c84:	df000904 	addi	fp,sp,36
   83c88:	e13ffb15 	stw	r4,-20(fp)
   83c8c:	2809883a 	mov	r4,r5
   83c90:	3007883a 	mov	r3,r6
   83c94:	3805883a 	mov	r2,r7
   83c98:	e13ffc05 	stb	r4,-16(fp)
   83c9c:	e0fffd05 	stb	r3,-12(fp)
   83ca0:	e0bffe0d 	sth	r2,-8(fp)
    SHORT RemainedCount,ReqCount ;
    BYTE bCurrOffset ;
    SHORT TimeOut ;
    BYTE *pBuff = pData ;
   83ca4:	e0bffb17 	ldw	r2,-20(fp)
   83ca8:	e0bff915 	stw	r2,-28(fp)
    BYTE ucdata ;

    // ErrorF("ReadEDID(%08lX,%d,%d,%d)\n",(ULONG)pData,bSegment,offset,Count) ;
    if(!pData)
   83cac:	e0bffb17 	ldw	r2,-20(fp)
   83cb0:	1000071e 	bne	r2,zero,83cd0 <ReadEDID+0x5c>
    {
        ErrorF("ReadEDID(): Invallid pData pointer %08lX\n",(ULONG)pData) ;
   83cb4:	e0bffb17 	ldw	r2,-20(fp)
   83cb8:	100b883a 	mov	r5,r2
   83cbc:	010002b4 	movhi	r4,10
   83cc0:	212f3c04 	addi	r4,r4,-17168
   83cc4:	00877a40 	call	877a4 <ErrorF>
        return ER_FAIL ;
   83cc8:	00800044 	movi	r2,1
   83ccc:	00009b06 	br	83f3c <ReadEDID+0x2c8>
    }

    if(HDMITX_ReadI2C_Byte(REG_TX_INT_STAT1) & B_INT_DDC_BUS_HANG)
   83cd0:	01000184 	movi	r4,6
   83cd4:	0087a640 	call	87a64 <HDMITX_ReadI2C_Byte>
   83cd8:	10803fcc 	andi	r2,r2,255
   83cdc:	1080010c 	andi	r2,r2,4
   83ce0:	10000426 	beq	r2,zero,83cf4 <ReadEDID+0x80>
    {
    	ErrorF("Called AboutDDC()\n") ;
   83ce4:	010002b4 	movhi	r4,10
   83ce8:	212f4704 	addi	r4,r4,-17124
   83cec:	00877a40 	call	877a4 <ErrorF>
        AbortDDC() ;
   83cf0:	0083b400 	call	83b40 <AbortDDC>

    }

    ClearDDCFIFO() ;
   83cf4:	0083ac00 	call	83ac0 <ClearDDCFIFO>

    RemainedCount = Count ;
   83cf8:	e0bffe0b 	ldhu	r2,-8(fp)
   83cfc:	e0bff70d 	sth	r2,-36(fp)
    bCurrOffset = offset ;
   83d00:	e0bffd03 	ldbu	r2,-12(fp)
   83d04:	e0bff805 	stb	r2,-32(fp)

    Switch_HDMITX_Bank(0) ;
   83d08:	000b883a 	mov	r5,zero
   83d0c:	010003c4 	movi	r4,15
   83d10:	0087aa80 	call	87aa8 <HDMITX_WriteI2C_Byte>

    while(RemainedCount > 0)
   83d14:	00008606 	br	83f30 <ReadEDID+0x2bc>
    {

        ReqCount = (RemainedCount > DDC_FIFO_MAXREQ)?DDC_FIFO_MAXREQ:RemainedCount ;
   83d18:	e0bff70b 	ldhu	r2,-36(fp)
   83d1c:	10ffffcc 	andi	r3,r2,65535
   83d20:	18e0001c 	xori	r3,r3,32768
   83d24:	18e00004 	addi	r3,r3,-32768
   83d28:	18c00850 	cmplti	r3,r3,33
   83d2c:	1800011e 	bne	r3,zero,83d34 <ReadEDID+0xc0>
   83d30:	00800804 	movi	r2,32
   83d34:	e0bff78d 	sth	r2,-34(fp)
        ErrorF("ReadEDID(): ReqCount = %d,bCurrOffset = %d\n",ReqCount,bCurrOffset) ;
   83d38:	e0bff78f 	ldh	r2,-34(fp)
   83d3c:	e0fff803 	ldbu	r3,-32(fp)
   83d40:	180d883a 	mov	r6,r3
   83d44:	100b883a 	mov	r5,r2
   83d48:	010002b4 	movhi	r4,10
   83d4c:	212f4c04 	addi	r4,r4,-17104
   83d50:	00877a40 	call	877a4 <ErrorF>

        HDMITX_WriteI2C_Byte(REG_TX_DDC_MASTER_CTRL,B_MASTERDDC|B_MASTERHOST) ;
   83d54:	01400044 	movi	r5,1
   83d58:	01000404 	movi	r4,16
   83d5c:	0087aa80 	call	87aa8 <HDMITX_WriteI2C_Byte>
        HDMITX_WriteI2C_Byte(REG_TX_DDC_CMD,CMD_FIFO_CLR) ;
   83d60:	01400244 	movi	r5,9
   83d64:	01000544 	movi	r4,21
   83d68:	0087aa80 	call	87aa8 <HDMITX_WriteI2C_Byte>

        for(TimeOut = 0 ; TimeOut < 200 ; TimeOut++)
   83d6c:	e03ff88d 	sth	zero,-30(fp)
   83d70:	00001906 	br	83dd8 <ReadEDID+0x164>
    	{
		    ucdata = HDMITX_ReadI2C_Byte(REG_TX_DDC_STATUS) ;
   83d74:	01000584 	movi	r4,22
   83d78:	0087a640 	call	87a64 <HDMITX_ReadI2C_Byte>
   83d7c:	e0bffa05 	stb	r2,-24(fp)
		    
		    if(ucdata&B_DDC_DONE)
   83d80:	e0bffa03 	ldbu	r2,-24(fp)
   83d84:	10803fcc 	andi	r2,r2,255
   83d88:	1080201c 	xori	r2,r2,128
   83d8c:	10bfe004 	addi	r2,r2,-128
   83d90:	10001516 	blt	r2,zero,83de8 <ReadEDID+0x174>
		    {
		        break ;  
		    }
		    
		    if((ucdata & B_DDC_ERROR)||(HDMITX_ReadI2C_Byte(REG_TX_INT_STAT1) & B_INT_DDC_BUS_HANG))
   83d94:	e0bffa03 	ldbu	r2,-24(fp)
   83d98:	10800e0c 	andi	r2,r2,56
   83d9c:	1000051e 	bne	r2,zero,83db4 <ReadEDID+0x140>
   83da0:	01000184 	movi	r4,6
   83da4:	0087a640 	call	87a64 <HDMITX_ReadI2C_Byte>
   83da8:	10803fcc 	andi	r2,r2,255
   83dac:	1080010c 	andi	r2,r2,4
   83db0:	10000626 	beq	r2,zero,83dcc <ReadEDID+0x158>
		    {
		    	ErrorF("Called AboutDDC()\n") ;
   83db4:	010002b4 	movhi	r4,10
   83db8:	212f4704 	addi	r4,r4,-17124
   83dbc:	00877a40 	call	877a4 <ErrorF>
		        AbortDDC() ;
   83dc0:	0083b400 	call	83b40 <AbortDDC>
				return ER_FAIL ;
   83dc4:	00800044 	movi	r2,1
   83dc8:	00005c06 	br	83f3c <ReadEDID+0x2c8>
        ErrorF("ReadEDID(): ReqCount = %d,bCurrOffset = %d\n",ReqCount,bCurrOffset) ;

        HDMITX_WriteI2C_Byte(REG_TX_DDC_MASTER_CTRL,B_MASTERDDC|B_MASTERHOST) ;
        HDMITX_WriteI2C_Byte(REG_TX_DDC_CMD,CMD_FIFO_CLR) ;

        for(TimeOut = 0 ; TimeOut < 200 ; TimeOut++)
   83dcc:	e0bff88b 	ldhu	r2,-30(fp)
   83dd0:	10800044 	addi	r2,r2,1
   83dd4:	e0bff88d 	sth	r2,-30(fp)
   83dd8:	e0bff88f 	ldh	r2,-30(fp)
   83ddc:	10803210 	cmplti	r2,r2,200
   83de0:	103fe41e 	bne	r2,zero,83d74 <__alt_data_end+0xfffb3eb4>
   83de4:	00000106 	br	83dec <ReadEDID+0x178>
    	{
		    ucdata = HDMITX_ReadI2C_Byte(REG_TX_DDC_STATUS) ;
		    
		    if(ucdata&B_DDC_DONE)
		    {
		        break ;  
   83de8:	0001883a 	nop
		        AbortDDC() ;
				return ER_FAIL ;
		    }
    	}

        HDMITX_WriteI2C_Byte(REG_TX_DDC_MASTER_CTRL,B_MASTERDDC|B_MASTERHOST) ;
   83dec:	01400044 	movi	r5,1
   83df0:	01000404 	movi	r4,16
   83df4:	0087aa80 	call	87aa8 <HDMITX_WriteI2C_Byte>
        HDMITX_WriteI2C_Byte(REG_TX_DDC_HEADER,DDC_EDID_ADDRESS) ; // for EDID ucdata get
   83df8:	01402804 	movi	r5,160
   83dfc:	01000444 	movi	r4,17
   83e00:	0087aa80 	call	87aa8 <HDMITX_WriteI2C_Byte>
        HDMITX_WriteI2C_Byte(REG_TX_DDC_REQOFF,bCurrOffset) ;
   83e04:	e0bff803 	ldbu	r2,-32(fp)
   83e08:	100b883a 	mov	r5,r2
   83e0c:	01000484 	movi	r4,18
   83e10:	0087aa80 	call	87aa8 <HDMITX_WriteI2C_Byte>
        HDMITX_WriteI2C_Byte(REG_TX_DDC_REQCOUNT,(BYTE)ReqCount) ;
   83e14:	e0bff78b 	ldhu	r2,-34(fp)
   83e18:	10803fcc 	andi	r2,r2,255
   83e1c:	100b883a 	mov	r5,r2
